
========================================================================

** ELF Header Information

    File Name: ./objects/project.axf

    Machine class: ELFCLASS32 (32-bit)
    Data encoding: ELFDATA2LSB (Little endian)
    Header version: EV_CURRENT (Current version)
    Operating System ABI: none
    ABI Version: 0
    File Type: ET_EXEC (Executable) (2)
    Machine: EM_ARM (ARM)

    Image Entry point: 0x080001a9
    Flags: EF_ARM_HASENTRY + EF_ARM_ABI_FLOAT_SOFT (0x05000202)

    ARM ELF revision: 5 (ABI version 2)

    Conforms to Soft float procedure-call standard

    Built with
    Component: ARM Compiler 5.06 update 7 (build 960) Tool: armasm [4d35fa]
    Component: ARM Compiler 5.06 update 7 (build 960) Tool: armlink [4d3601]

    Header size: 52 bytes (0x34)
    Program header entry size: 32 bytes (0x20)
    Section header entry size: 40 bytes (0x28)

    Program header entries: 1
    Section header entries: 16

    Program header offset: 165192 (0x00028548)
    Section header offset: 165224 (0x00028568)

    Section header string table index: 15

========================================================================

** Program header #0 (PT_LOAD) [PF_X + PF_W + PF_R + PF_ARM_ENTRY]
    Size : 39920 bytes (5148 bytes in file)
    Virtual address: 0x08000000 (Alignment 8)


========================================================================

** Section #1 'ER_IROM1' (SHT_PROGBITS) [SHF_ALLOC + SHF_EXECINSTR]
    Size   : 5104 bytes (alignment 4)
    Address: 0x08000000

    $d.realdata
    RESET
    __Vectors
        0x08000000:    20008800    ...     DCD    536905728
        0x08000004:    080001c9    ....    DCD    134218185
        0x08000008:    0800037b    {...    DCD    134218619
        0x0800000c:    08000373    s...    DCD    134218611
        0x08000010:    08000377    w...    DCD    134218615
        0x08000014:    08000235    5...    DCD    134218293
        0x08000018:    08000675    u...    DCD    134219381
        0x0800001c:    00000000    ....    DCD    0
        0x08000020:    00000000    ....    DCD    0
        0x08000024:    00000000    ....    DCD    0
        0x08000028:    00000000    ....    DCD    0
        0x0800002c:    0800055d    ]...    DCD    134219101
        0x08000030:    08000239    9...    DCD    134218297
        0x08000034:    00000000    ....    DCD    0
        0x08000038:    0800037d    }...    DCD    134218621
        0x0800003c:    0800055f    _...    DCD    134219103
        0x08000040:    080001e3    ....    DCD    134218211
        0x08000044:    080001e3    ....    DCD    134218211
        0x08000048:    080001e3    ....    DCD    134218211
        0x0800004c:    080001e3    ....    DCD    134218211
        0x08000050:    080001e3    ....    DCD    134218211
        0x08000054:    080001e3    ....    DCD    134218211
        0x08000058:    080001e3    ....    DCD    134218211
        0x0800005c:    080001e3    ....    DCD    134218211
        0x08000060:    080001e3    ....    DCD    134218211
        0x08000064:    080001e3    ....    DCD    134218211
        0x08000068:    080001e3    ....    DCD    134218211
        0x0800006c:    080001e3    ....    DCD    134218211
        0x08000070:    080001e3    ....    DCD    134218211
        0x08000074:    080001e3    ....    DCD    134218211
        0x08000078:    080001e3    ....    DCD    134218211
        0x0800007c:    080001e3    ....    DCD    134218211
        0x08000080:    080001e3    ....    DCD    134218211
        0x08000084:    080001e3    ....    DCD    134218211
        0x08000088:    080001e3    ....    DCD    134218211
        0x0800008c:    080001e3    ....    DCD    134218211
        0x08000090:    080001e3    ....    DCD    134218211
        0x08000094:    080001e3    ....    DCD    134218211
        0x08000098:    080001e3    ....    DCD    134218211
        0x0800009c:    080001e3    ....    DCD    134218211
        0x080000a0:    080001e3    ....    DCD    134218211
        0x080000a4:    080001e3    ....    DCD    134218211
        0x080000a8:    080001e3    ....    DCD    134218211
        0x080000ac:    080001e3    ....    DCD    134218211
        0x080000b0:    080001e3    ....    DCD    134218211
        0x080000b4:    080001e3    ....    DCD    134218211
        0x080000b8:    080001e3    ....    DCD    134218211
        0x080000bc:    080001e3    ....    DCD    134218211
        0x080000c0:    080001e3    ....    DCD    134218211
        0x080000c4:    080001e3    ....    DCD    134218211
        0x080000c8:    080001e3    ....    DCD    134218211
        0x080000cc:    080001e3    ....    DCD    134218211
        0x080000d0:    080001e3    ....    DCD    134218211
        0x080000d4:    08000635    5...    DCD    134219317
        0x080000d8:    080001e3    ....    DCD    134218211
        0x080000dc:    080001e3    ....    DCD    134218211
        0x080000e0:    080001e3    ....    DCD    134218211
        0x080000e4:    080001e3    ....    DCD    134218211
        0x080000e8:    080001e3    ....    DCD    134218211
        0x080000ec:    080001e3    ....    DCD    134218211
        0x080000f0:    080001e3    ....    DCD    134218211
        0x080000f4:    080001e3    ....    DCD    134218211
        0x080000f8:    080001e3    ....    DCD    134218211
        0x080000fc:    080001e3    ....    DCD    134218211
        0x08000100:    080001e3    ....    DCD    134218211
        0x08000104:    080001e3    ....    DCD    134218211
        0x08000108:    080001e3    ....    DCD    134218211
        0x0800010c:    080001e3    ....    DCD    134218211
        0x08000110:    080005f1    ....    DCD    134219249
        0x08000114:    080001e3    ....    DCD    134218211
        0x08000118:    080001e3    ....    DCD    134218211
        0x0800011c:    080001e3    ....    DCD    134218211
        0x08000120:    080001e3    ....    DCD    134218211
        0x08000124:    080001e3    ....    DCD    134218211
        0x08000128:    080001e3    ....    DCD    134218211
        0x0800012c:    080001e3    ....    DCD    134218211
        0x08000130:    080001e3    ....    DCD    134218211
        0x08000134:    080001e3    ....    DCD    134218211
        0x08000138:    080001e3    ....    DCD    134218211
        0x0800013c:    080001e3    ....    DCD    134218211
        0x08000140:    080001e3    ....    DCD    134218211
        0x08000144:    080001e3    ....    DCD    134218211
        0x08000148:    080001e3    ....    DCD    134218211
        0x0800014c:    080001e3    ....    DCD    134218211
        0x08000150:    00000000    ....    DCD    0
        0x08000154:    080001e3    ....    DCD    134218211
        0x08000158:    080001e3    ....    DCD    134218211
        0x0800015c:    080001e3    ....    DCD    134218211
        0x08000160:    080001e3    ....    DCD    134218211
        0x08000164:    080001e3    ....    DCD    134218211
        0x08000168:    00000000    ....    DCD    0
        0x0800016c:    00000000    ....    DCD    0
        0x08000170:    00000000    ....    DCD    0
        0x08000174:    00000000    ....    DCD    0
        0x08000178:    080001e3    ....    DCD    134218211
        0x0800017c:    080001e3    ....    DCD    134218211
        0x08000180:    080001e3    ....    DCD    134218211
        0x08000184:    00000000    ....    DCD    0
        0x08000188:    080001e3    ....    DCD    134218211
        0x0800018c:    080001e3    ....    DCD    134218211
        0x08000190:    00000000    ....    DCD    0
        0x08000194:    00000000    ....    DCD    0
        0x08000198:    00000000    ....    DCD    0
        0x0800019c:    00000000    ....    DCD    0
        0x080001a0:    080001e3    ....    DCD    134218211
        0x080001a4:    080001e3    ....    DCD    134218211
    $t
    .ARM.Collect$$$$00000000
    .ARM.Collect$$$$00000001
    __Vectors_End
    __main
    _main_stk
        0x080001a8:    f8dfd010    ....    LDR      sp,__lit__00000000 ; [0x80001bc] = 0x20008800
    .ARM.Collect$$$$00000004
    _main_scatterload
        0x080001ac:    f000f830    ..0.    BL       __scatterload ; 0x8000210
    .ARM.Collect$$$$00000008
    .ARM.Collect$$$$0000000A
    .ARM.Collect$$$$0000000B
    __main_after_scatterload
    _main_clock
    _main_cpp_init
    _main_init
        0x080001b0:    4800        .H      LDR      r0,[pc,#0] ; [0x80001b4] = 0x8000c41
        0x080001b2:    4700        .G      BX       r0
    $d
        0x080001b4:    08000c41    A...    DCD    134220865
    $t
    .ARM.Collect$$$$0000000E
    __rt_lib_shutdown_fini
        0x080001b8:    f3af8000    ....    NOP.W    
    $d
    .ARM.Collect$$$$00002712
    __lit__00000000
    .ARM.Collect$$$$0000000F
    .ARM.Collect$$$$00000011
    __rt_final_cpp
    __rt_final_exit
        0x080001bc:    20008800    ...     DCD    536905728
    $t
    .emb_text
    MSR_MSP
        0x080001c0:    f3808808    ....    MSR      MSP,r0
        0x080001c4:    4770        pG      BX       lr
        0x080001c6:    0000        ..      MOVS     r0,r0
    .text
    Reset_Handler
        0x080001c8:    4806        .H      LDR      r0,[pc,#24] ; [0x80001e4] = 0x8000561
        0x080001ca:    4780        .G      BLX      r0
        0x080001cc:    4806        .H      LDR      r0,[pc,#24] ; [0x80001e8] = 0x80001a9
        0x080001ce:    4700        .G      BX       r0
        0x080001d0:    e7fe        ..      B        0x80001d0 ; Reset_Handler + 8
        0x080001d2:    e7fe        ..      B        0x80001d2 ; Reset_Handler + 10
        0x080001d4:    e7fe        ..      B        0x80001d4 ; Reset_Handler + 12
        0x080001d6:    e7fe        ..      B        0x80001d6 ; Reset_Handler + 14
        0x080001d8:    e7fe        ..      B        0x80001d8 ; Reset_Handler + 16
        0x080001da:    e7fe        ..      B        0x80001da ; Reset_Handler + 18
        0x080001dc:    e7fe        ..      B        0x80001dc ; Reset_Handler + 20
        0x080001de:    e7fe        ..      B        0x80001de ; Reset_Handler + 22
        0x080001e0:    e7fe        ..      B        0x80001e0 ; Reset_Handler + 24
    ADC0_1_IRQHandler
    ADC2_IRQHandler
    CAN0_EWMC_IRQHandler
    CAN0_RX0_IRQHandler
    CAN0_RX1_IRQHandler
    CAN0_TX_IRQHandler
    CAN1_EWMC_IRQHandler
    CAN1_RX0_IRQHandler
    CAN1_RX1_IRQHandler
    CAN1_TX_IRQHandler
    CAU_IRQHandler
    DCI_IRQHandler
    DMA0_Channel0_IRQHandler
    DMA0_Channel1_IRQHandler
    DMA0_Channel2_IRQHandler
    DMA0_Channel3_IRQHandler
    DMA0_Channel4_IRQHandler
    DMA0_Channel5_IRQHandler
    DMA0_Channel6_IRQHandler
    DMA1_Channel0_IRQHandler
    DMA1_Channel1_IRQHandler
    DMA1_Channel2_IRQHandler
    DMA1_Channel3_IRQHandler
    DMA1_Channel4_IRQHandler
    DMA1_Channel5_IRQHandler
    DMA1_Channel6_IRQHandler
    ENET_IRQHandler
    ENET_WKUP_IRQHandler
    EXMC_IRQHandler
    EXTI0_IRQHandler
    EXTI10_15_IRQHandler
    EXTI1_IRQHandler
    EXTI2_IRQHandler
    EXTI3_IRQHandler
    EXTI4_IRQHandler
    EXTI5_9_IRQHandler
    FMC_IRQHandler
    HAU_TRNG_IRQHandler
    I2C0_ER_IRQHandler
    I2C0_EV_IRQHandler
    I2C1_ER_IRQHandler
    I2C1_EV_IRQHandler
    I2C2_ER_IRQHandler
    I2C2_EV_IRQHandler
    LVD_IRQHandler
    RCU_IRQHandler
    RTC_Alarm_IRQHandler
    RTC_IRQHandler
    SDIO_IRQHandler
    SPI0_IRQHandler
    SPI1_IRQHandler
    SPI2_IRQHandler
    TAMPER_IRQHandler
    TIMER0_BRK_TIMER8_IRQHandler
    TIMER0_Channel_IRQHandler
    TIMER0_TRG_CMT_TIMER10_IRQHandler
    TIMER0_UP_TIMER9_IRQHandler
    TIMER1_IRQHandler
    TIMER2_IRQHandler
    TIMER3_IRQHandler
    TIMER4_IRQHandler
    TIMER5_IRQHandler
    TIMER6_IRQHandler
    TIMER7_BRK_TIMER11_IRQHandler
    TIMER7_Channel_IRQHandler
    TIMER7_TRG_CMT_TIMER13_IRQHandler
    TIMER7_UP_TIMER12_IRQHandler
    TLI_ER_IRQHandler
    TLI_IRQHandler
    UART4_IRQHandler
    UART6_IRQHandler
    UART7_IRQHandler
    USART1_IRQHandler
    USART2_IRQHandler
    USART5_IRQHandler
    USBFS_IRQHandler
    USBFS_WKUP_IRQHandler
    WWDGT_IRQHandler
        0x080001e2:    e7fe        ..      B        ADC0_1_IRQHandler ; 0x80001e2
    $d
        0x080001e4:    08000561    a...    DCD    134219105
        0x080001e8:    080001a9    ....    DCD    134218153
    $t
    .text
    __aeabi_memset
    __aeabi_memset4
    __aeabi_memset8
        0x080001ec:    b2d2        ..      UXTB     r2,r2
        0x080001ee:    e001        ..      B        0x80001f4 ; __aeabi_memset + 8
        0x080001f0:    f8002b01    ...+    STRB     r2,[r0],#1
        0x080001f4:    1e49        I.      SUBS     r1,r1,#1
        0x080001f6:    d2fb        ..      BCS      0x80001f0 ; __aeabi_memset + 4
        0x080001f8:    4770        pG      BX       lr
    __aeabi_memclr
    __aeabi_memclr4
    __aeabi_memclr8
        0x080001fa:    2200        ."      MOVS     r2,#0
        0x080001fc:    e7f6        ..      B        __aeabi_memset ; 0x80001ec
    _memset$wrapper
        0x080001fe:    b510        ..      PUSH     {r4,lr}
        0x08000200:    4613        .F      MOV      r3,r2
        0x08000202:    460a        .F      MOV      r2,r1
        0x08000204:    4604        .F      MOV      r4,r0
        0x08000206:    4619        .F      MOV      r1,r3
        0x08000208:    f7fffff0    ....    BL       __aeabi_memset ; 0x80001ec
        0x0800020c:    4620         F      MOV      r0,r4
        0x0800020e:    bd10        ..      POP      {r4,pc}
    .text
    __scatterload
    __scatterload_rt2
        0x08000210:    4c06        .L      LDR      r4,[pc,#24] ; [0x800022c] = 0x80013d0
        0x08000212:    4d07        .M      LDR      r5,[pc,#28] ; [0x8000230] = 0x80013f0
        0x08000214:    e006        ..      B        0x8000224 ; __scatterload + 20
        0x08000216:    68e0        .h      LDR      r0,[r4,#0xc]
        0x08000218:    f0400301    @...    ORR      r3,r0,#1
        0x0800021c:    e8940007    ....    LDM      r4,{r0-r2}
        0x08000220:    4798        .G      BLX      r3
        0x08000222:    3410        .4      ADDS     r4,r4,#0x10
        0x08000224:    42ac        .B      CMP      r4,r5
        0x08000226:    d3f6        ..      BCC      0x8000216 ; __scatterload + 6
        0x08000228:    f7ffffc2    ....    BL       __main_after_scatterload ; 0x80001b0
    $d
        0x0800022c:    080013d0    ....    DCD    134222800
        0x08000230:    080013f0    ....    DCD    134222832
    $t
    i.BusFault_Handler
    BusFault_Handler
        0x08000234:    bf00        ..      NOP      
        0x08000236:    e7fe        ..      B        0x8000236 ; BusFault_Handler + 2
    i.DebugMon_Handler
    DebugMon_Handler
        0x08000238:    4770        pG      BX       lr
    i.GDFLASH_Read
    GDFLASH_Read
        0x0800023a:    b530        0.      PUSH     {r4,r5,lr}
        0x0800023c:    4603        .F      MOV      r3,r0
        0x0800023e:    460c        .F      MOV      r4,r1
        0x08000240:    4615        .F      MOV      r5,r2
        0x08000242:    2200        ."      MOVS     r2,#0
        0x08000244:    e007        ..      B        0x8000256 ; GDFLASH_Read + 28
        0x08000246:    4618        .F      MOV      r0,r3
        0x08000248:    f000f808    ....    BL       GDFLASH_ReadHalfWord ; 0x800025c
        0x0800024c:    f8240012    $...    STRH     r0,[r4,r2,LSL #1]
        0x08000250:    1c9b        ..      ADDS     r3,r3,#2
        0x08000252:    1c50        P.      ADDS     r0,r2,#1
        0x08000254:    b282        ..      UXTH     r2,r0
        0x08000256:    42aa        .B      CMP      r2,r5
        0x08000258:    dbf5        ..      BLT      0x8000246 ; GDFLASH_Read + 12
        0x0800025a:    bd30        0.      POP      {r4,r5,pc}
    i.GDFLASH_ReadHalfWord
    GDFLASH_ReadHalfWord
        0x0800025c:    4601        .F      MOV      r1,r0
        0x0800025e:    8808        ..      LDRH     r0,[r1,#0]
        0x08000260:    4770        pG      BX       lr
        0x08000262:    0000        ..      MOVS     r0,r0
    i.GDFLASH_Write
    GDFLASH_Write
        0x08000264:    e92d5ff0    -.._    PUSH     {r4-r12,lr}
        0x08000268:    4680        .F      MOV      r8,r0
        0x0800026a:    468a        .F      MOV      r10,r1
        0x0800026c:    4617        .F      MOV      r7,r2
        0x0800026e:    f1b86f00    ...o    CMP      r8,#0x8000000
        0x08000272:    d302        ..      BCC      0x800027a ; GDFLASH_Write + 22
        0x08000274:    4833        3H      LDR      r0,[pc,#204] ; [0x8000344] = 0x8040000
        0x08000276:    4580        .E      CMP      r8,r0
        0x08000278:    d301        ..      BCC      0x800027e ; GDFLASH_Write + 26
        0x0800027a:    e8bd9ff0    ....    POP      {r4-r12,pc}
        0x0800027e:    f000fb8f    ....    BL       fmc_unlock ; 0x80009a0
        0x08000282:    f1a86b00    ...k    SUB      r11,r8,#0x8000000
        0x08000286:    ea4f25db    O..%    LSR      r5,r11,#11
        0x0800028a:    f3cb0949    ..I.    UBFX     r9,r11,#1,#10
        0x0800028e:    f5c96480    ...d    RSB      r4,r9,#0x400
        0x08000292:    42a7        .B      CMP      r7,r4
        0x08000294:    dc00        ..      BGT      0x8000298 ; GDFLASH_Write + 52
        0x08000296:    463c        <F      MOV      r4,r7
        0x08000298:    e04d        M.      B        0x8000336 ; GDFLASH_Write + 210
        0x0800029a:    f04f6100    O..a    MOV      r1,#0x8000000
        0x0800029e:    eb0120c5    ...     ADD      r0,r1,r5,LSL #11
        0x080002a2:    144a        J.      ASRS     r2,r1,#17
        0x080002a4:    4928        (I      LDR      r1,[pc,#160] ; [0x8000348] = 0x200000f4
        0x080002a6:    f7ffffc8    ....    BL       GDFLASH_Read ; 0x800023a
        0x080002aa:    2600        .&      MOVS     r6,#0
        0x080002ac:    e00b        ..      B        0x80002c6 ; GDFLASH_Write + 98
        0x080002ae:    eb090006    ....    ADD      r0,r9,r6
        0x080002b2:    4925        %I      LDR      r1,[pc,#148] ; [0x8000348] = 0x200000f4
        0x080002b4:    f8310010    1...    LDRH     r0,[r1,r0,LSL #1]
        0x080002b8:    f64f71ff    O..q    MOV      r1,#0xffff
        0x080002bc:    4288        .B      CMP      r0,r1
        0x080002be:    d000        ..      BEQ      0x80002c2 ; GDFLASH_Write + 94
        0x080002c0:    e003        ..      B        0x80002ca ; GDFLASH_Write + 102
        0x080002c2:    1c70        p.      ADDS     r0,r6,#1
        0x080002c4:    b286        ..      UXTH     r6,r0
        0x080002c6:    42a6        .B      CMP      r6,r4
        0x080002c8:    dbf1        ..      BLT      0x80002ae ; GDFLASH_Write + 74
        0x080002ca:    bf00        ..      NOP      
        0x080002cc:    42a6        .B      CMP      r6,r4
        0x080002ce:    da1b        ..      BGE      0x8000308 ; GDFLASH_Write + 164
        0x080002d0:    f04f6100    O..a    MOV      r1,#0x8000000
        0x080002d4:    eb0120c5    ...     ADD      r0,r1,r5,LSL #11
        0x080002d8:    f000fae6    ....    BL       fmc_page_erase ; 0x80008a8
        0x080002dc:    2600        .&      MOVS     r6,#0
        0x080002de:    e008        ..      B        0x80002f2 ; GDFLASH_Write + 142
        0x080002e0:    f83a0016    :...    LDRH     r0,[r10,r6,LSL #1]
        0x080002e4:    eb060109    ....    ADD      r1,r6,r9
        0x080002e8:    4a17        .J      LDR      r2,[pc,#92] ; [0x8000348] = 0x200000f4
        0x080002ea:    f8220011    "...    STRH     r0,[r2,r1,LSL #1]
        0x080002ee:    1c70        p.      ADDS     r0,r6,#1
        0x080002f0:    b286        ..      UXTH     r6,r0
        0x080002f2:    42a6        .B      CMP      r6,r4
        0x080002f4:    dbf4        ..      BLT      0x80002e0 ; GDFLASH_Write + 124
        0x080002f6:    f04f6100    O..a    MOV      r1,#0x8000000
        0x080002fa:    eb0120c5    ...     ADD      r0,r1,r5,LSL #11
        0x080002fe:    144a        J.      ASRS     r2,r1,#17
        0x08000300:    4911        .I      LDR      r1,[pc,#68] ; [0x8000348] = 0x200000f4
        0x08000302:    f000f823    ..#.    BL       GDFLASH_Write_NoCheck ; 0x800034c
        0x08000306:    e004        ..      B        0x8000312 ; GDFLASH_Write + 174
        0x08000308:    4622        "F      MOV      r2,r4
        0x0800030a:    4651        QF      MOV      r1,r10
        0x0800030c:    4640        @F      MOV      r0,r8
        0x0800030e:    f000f81d    ....    BL       GDFLASH_Write_NoCheck ; 0x800034c
        0x08000312:    42a7        .B      CMP      r7,r4
        0x08000314:    d100        ..      BNE      0x8000318 ; GDFLASH_Write + 180
        0x08000316:    e00f        ..      B        0x8000338 ; GDFLASH_Write + 212
        0x08000318:    1c6d        m.      ADDS     r5,r5,#1
        0x0800031a:    f04f0900    O...    MOV      r9,#0
        0x0800031e:    eb0a0a44    ..D.    ADD      r10,r10,r4,LSL #1
        0x08000322:    44a0        .D      ADD      r8,r8,r4
        0x08000324:    1b38        8.      SUBS     r0,r7,r4
        0x08000326:    b287        ..      UXTH     r7,r0
        0x08000328:    f5b76f80    ...o    CMP      r7,#0x400
        0x0800032c:    dd02        ..      BLE      0x8000334 ; GDFLASH_Write + 208
        0x0800032e:    f44f6480    O..d    MOV      r4,#0x400
        0x08000332:    e000        ..      B        0x8000336 ; GDFLASH_Write + 210
        0x08000334:    463c        <F      MOV      r4,r7
        0x08000336:    e7b0        ..      B        0x800029a ; GDFLASH_Write + 54
        0x08000338:    bf00        ..      NOP      
        0x0800033a:    f000fa9f    ....    BL       fmc_lock ; 0x800087c
        0x0800033e:    bf00        ..      NOP      
        0x08000340:    e79b        ..      B        0x800027a ; GDFLASH_Write + 22
    $d
        0x08000342:    0000        ..      DCW    0
        0x08000344:    08040000    ....    DCD    134479872
        0x08000348:    200000f4    ...     DCD    536871156
    $t
    i.GDFLASH_Write_NoCheck
    GDFLASH_Write_NoCheck
        0x0800034c:    e92d41f0    -..A    PUSH     {r4-r8,lr}
        0x08000350:    4605        .F      MOV      r5,r0
        0x08000352:    460e        .F      MOV      r6,r1
        0x08000354:    4617        .F      MOV      r7,r2
        0x08000356:    2400        .$      MOVS     r4,#0
        0x08000358:    e007        ..      B        0x800036a ; GDFLASH_Write_NoCheck + 30
        0x0800035a:    f8361014    6...    LDRH     r1,[r6,r4,LSL #1]
        0x0800035e:    4628        (F      MOV      r0,r5
        0x08000360:    f000fa2c    ..,.    BL       fmc_halfword_program ; 0x80007bc
        0x08000364:    1cad        ..      ADDS     r5,r5,#2
        0x08000366:    1c60        `.      ADDS     r0,r4,#1
        0x08000368:    b284        ..      UXTH     r4,r0
        0x0800036a:    42bc        .B      CMP      r4,r7
        0x0800036c:    dbf5        ..      BLT      0x800035a ; GDFLASH_Write_NoCheck + 14
        0x0800036e:    e8bd81f0    ....    POP      {r4-r8,pc}
    i.HardFault_Handler
    HardFault_Handler
        0x08000372:    bf00        ..      NOP      
        0x08000374:    e7fe        ..      B        0x8000374 ; HardFault_Handler + 2
    i.MemManage_Handler
    MemManage_Handler
        0x08000376:    bf00        ..      NOP      
        0x08000378:    e7fe        ..      B        0x8000378 ; MemManage_Handler + 2
    i.NMI_Handler
    NMI_Handler
        0x0800037a:    4770        pG      BX       lr
    i.PendSV_Handler
    PendSV_Handler
        0x0800037c:    4770        pG      BX       lr
        0x0800037e:    0000        ..      MOVS     r0,r0
    i.RS485_Init
    RS485_Init
        0x08000380:    b510        ..      PUSH     {r4,lr}
        0x08000382:    4604        .F      MOV      r4,r0
        0x08000384:    f2406004    @..`    MOV      r0,#0x604
        0x08000388:    f000fd94    ....    BL       rcu_periph_clock_enable ; 0x8000eb4
        0x0800038c:    f44f5380    O..S    MOV      r3,#0x1000
        0x08000390:    2203        ."      MOVS     r2,#3
        0x08000392:    2110        .!      MOVS     r1,#0x10
        0x08000394:    482d        -H      LDR      r0,[pc,#180] ; [0x800044c] = 0x40011000
        0x08000396:    f000fb3b    ..;.    BL       gpio_init ; 0x8000a10
        0x0800039a:    f44f5180    O..Q    MOV      r1,#0x1000
        0x0800039e:    482b        +H      LDR      r0,[pc,#172] ; [0x800044c] = 0x40011000
        0x080003a0:    f000fb32    ..2.    BL       gpio_bit_reset ; 0x8000a08
        0x080003a4:    f44f60c0    O..`    MOV      r0,#0x600
        0x080003a8:    f000fd84    ....    BL       rcu_periph_clock_enable ; 0x8000eb4
        0x080003ac:    2201        ."      MOVS     r2,#1
        0x080003ae:    0351        Q.      LSLS     r1,r2,#13
        0x080003b0:    2005        .       MOVS     r0,#5
        0x080003b2:    f000fb83    ....    BL       gpio_pin_remap1_config ; 0x8000abc
        0x080003b6:    f2406002    @..`    MOV      r0,#0x602
        0x080003ba:    f000fd7b    ..{.    BL       rcu_periph_clock_enable ; 0x8000eb4
        0x080003be:    f2407013    @..p    MOV      r0,#0x713
        0x080003c2:    f000fd77    ..w.    BL       rcu_periph_clock_enable ; 0x8000eb4
        0x080003c6:    2301        .#      MOVS     r3,#1
        0x080003c8:    2203        ."      MOVS     r2,#3
        0x080003ca:    2118        .!      MOVS     r1,#0x18
        0x080003cc:    4820         H      LDR      r0,[pc,#128] ; [0x8000450] = 0x40010800
        0x080003ce:    f000fb1f    ....    BL       gpio_init ; 0x8000a10
        0x080003d2:    2302        .#      MOVS     r3,#2
        0x080003d4:    2203        ."      MOVS     r2,#3
        0x080003d6:    2104        .!      MOVS     r1,#4
        0x080003d8:    481d        .H      LDR      r0,[pc,#116] ; [0x8000450] = 0x40010800
        0x080003da:    f000fb19    ....    BL       gpio_init ; 0x8000a10
        0x080003de:    481d        .H      LDR      r0,[pc,#116] ; [0x8000454] = 0x40004c00
        0x080003e0:    f000fefe    ....    BL       usart_deinit ; 0x80011e0
        0x080003e4:    4621        !F      MOV      r1,r4
        0x080003e6:    481b        .H      LDR      r0,[pc,#108] ; [0x8000454] = 0x40004c00
        0x080003e8:    f000fe40    ..@.    BL       usart_baudrate_set ; 0x800106c
        0x080003ec:    2100        .!      MOVS     r1,#0
        0x080003ee:    4819        .H      LDR      r0,[pc,#100] ; [0x8000454] = 0x40004c00
        0x080003f0:    f000ffe6    ....    BL       usart_word_length_set ; 0x80013c0
        0x080003f4:    2100        .!      MOVS     r1,#0
        0x080003f6:    4817        .H      LDR      r0,[pc,#92] ; [0x8000454] = 0x40004c00
        0x080003f8:    f000ffd0    ....    BL       usart_stop_bit_set ; 0x800139c
        0x080003fc:    2100        .!      MOVS     r1,#0
        0x080003fe:    4815        .H      LDR      r0,[pc,#84] ; [0x8000454] = 0x40004c00
        0x08000400:    f000ffba    ....    BL       usart_parity_config ; 0x8001378
        0x08000404:    2100        .!      MOVS     r1,#0
        0x08000406:    4813        .H      LDR      r0,[pc,#76] ; [0x8000454] = 0x40004c00
        0x08000408:    f000ff76    ..v.    BL       usart_hardware_flow_rts_config ; 0x80012f8
        0x0800040c:    2100        .!      MOVS     r1,#0
        0x0800040e:    4811        .H      LDR      r0,[pc,#68] ; [0x8000454] = 0x40004c00
        0x08000410:    f000ff72    ..r.    BL       usart_hardware_flow_rts_config ; 0x80012f8
        0x08000414:    2104        .!      MOVS     r1,#4
        0x08000416:    480f        .H      LDR      r0,[pc,#60] ; [0x8000454] = 0x40004c00
        0x08000418:    f000ffb6    ....    BL       usart_receive_config ; 0x8001388
        0x0800041c:    2108        .!      MOVS     r1,#8
        0x0800041e:    480d        .H      LDR      r0,[pc,#52] ; [0x8000454] = 0x40004c00
        0x08000420:    f000ffc4    ....    BL       usart_transmit_config ; 0x80013ac
        0x08000424:    480b        .H      LDR      r0,[pc,#44] ; [0x8000454] = 0x40004c00
        0x08000426:    f000ff49    ..I.    BL       usart_enable ; 0x80012bc
        0x0800042a:    2200        ."      MOVS     r2,#0
        0x0800042c:    4611        .F      MOV      r1,r2
        0x0800042e:    2034        4       MOVS     r0,#0x34
        0x08000430:    f000fc2a    ..*.    BL       nvic_irq_enable ; 0x8000c88
        0x08000434:    f2403107    @..1    MOV      r1,#0x307
        0x08000438:    4806        .H      LDR      r0,[pc,#24] ; [0x8000454] = 0x40004c00
        0x0800043a:    f000ff67    ..g.    BL       usart_interrupt_disable ; 0x800130c
        0x0800043e:    f2403105    @..1    MOV      r1,#0x305
        0x08000442:    4804        .H      LDR      r0,[pc,#16] ; [0x8000454] = 0x40004c00
        0x08000444:    f000ff6f    ..o.    BL       usart_interrupt_enable ; 0x8001326
        0x08000448:    bd10        ..      POP      {r4,pc}
    $d
        0x0800044a:    0000        ..      DCW    0
        0x0800044c:    40011000    ...@    DCD    1073811456
        0x08000450:    40010800    ...@    DCD    1073809408
        0x08000454:    40004c00    .L.@    DCD    1073761280
    $t
    i.RS485_Jump
    RS485_Jump
        0x08000458:    b510        ..      PUSH     {r4,lr}
        0x0800045a:    4827        'H      LDR      r0,[pc,#156] ; [0x80004f8] = 0x20001000
        0x0800045c:    7800        .x      LDRB     r0,[r0,#0]
        0x0800045e:    28bb        .(      CMP      r0,#0xbb
        0x08000460:    d11f        ..      BNE      0x80004a2 ; RS485_Jump + 74
        0x08000462:    4825        %H      LDR      r0,[pc,#148] ; [0x80004f8] = 0x20001000
        0x08000464:    7840        @x      LDRB     r0,[r0,#1]
        0x08000466:    28bb        .(      CMP      r0,#0xbb
        0x08000468:    d11b        ..      BNE      0x80004a2 ; RS485_Jump + 74
        0x0800046a:    4823        #H      LDR      r0,[pc,#140] ; [0x80004f8] = 0x20001000
        0x0800046c:    7880        .x      LDRB     r0,[r0,#2]
        0x0800046e:    28bb        .(      CMP      r0,#0xbb
        0x08000470:    d117        ..      BNE      0x80004a2 ; RS485_Jump + 74
        0x08000472:    4821        !H      LDR      r0,[pc,#132] ; [0x80004f8] = 0x20001000
        0x08000474:    78c0        .x      LDRB     r0,[r0,#3]
        0x08000476:    28bb        .(      CMP      r0,#0xbb
        0x08000478:    d113        ..      BNE      0x80004a2 ; RS485_Jump + 74
        0x0800047a:    481f        .H      LDR      r0,[pc,#124] ; [0x80004f8] = 0x20001000
        0x0800047c:    7900        .y      LDRB     r0,[r0,#4]
        0x0800047e:    2811        .(      CMP      r0,#0x11
        0x08000480:    d10f        ..      BNE      0x80004a2 ; RS485_Jump + 74
        0x08000482:    481e        .H      LDR      r0,[pc,#120] ; [0x80004fc] = 0x2000001c
        0x08000484:    6800        .h      LDR      r0,[r0,#0]
        0x08000486:    2805        .(      CMP      r0,#5
        0x08000488:    d10b        ..      BNE      0x80004a2 ; RS485_Jump + 74
        0x0800048a:    a01d        ..      ADR      r0,{pc}+0x76 ; 0x8000500
        0x0800048c:    f000f8f4    ....    BL       __0printf$bare ; 0x8000678
        0x08000490:    481a        .H      LDR      r0,[pc,#104] ; [0x80004fc] = 0x2000001c
        0x08000492:    6801        .h      LDR      r1,[r0,#0]
        0x08000494:    4818        .H      LDR      r0,[pc,#96] ; [0x80004f8] = 0x20001000
        0x08000496:    f7fffeb0    ....    BL       __aeabi_memclr ; 0x80001fa
        0x0800049a:    2000        .       MOVS     r0,#0
        0x0800049c:    4917        .I      LDR      r1,[pc,#92] ; [0x80004fc] = 0x2000001c
        0x0800049e:    6008        .`      STR      r0,[r1,#0]
        0x080004a0:    e00c        ..      B        0x80004bc ; RS485_Jump + 100
        0x080004a2:    4816        .H      LDR      r0,[pc,#88] ; [0x80004fc] = 0x2000001c
        0x080004a4:    6800        .h      LDR      r0,[r0,#0]
        0x080004a6:    280a        .(      CMP      r0,#0xa
        0x080004a8:    d908        ..      BLS      0x80004bc ; RS485_Jump + 100
        0x080004aa:    481c        .H      LDR      r0,[pc,#112] ; [0x800051c] = 0x20000000
        0x080004ac:    4912        .I      LDR      r1,[pc,#72] ; [0x80004f8] = 0x20001000
        0x080004ae:    6802        .h      LDR      r2,[r0,#0]
        0x080004b0:    481b        .H      LDR      r0,[pc,#108] ; [0x8000520] = 0x8010000
        0x080004b2:    f000fb57    ..W.    BL       iap_write_appbin ; 0x8000b64
        0x080004b6:    2001        .       MOVS     r0,#1
        0x080004b8:    491a        .I      LDR      r1,[pc,#104] ; [0x8000524] = 0x20000004
        0x080004ba:    7008        .p      STRB     r0,[r1,#0]
        0x080004bc:    4819        .H      LDR      r0,[pc,#100] ; [0x8000524] = 0x20000004
        0x080004be:    7800        .x      LDRB     r0,[r0,#0]
        0x080004c0:    b1c8        ..      CBZ      r0,0x80004f6 ; RS485_Jump + 158
        0x080004c2:    a019        ..      ADR      r0,{pc}+0x66 ; 0x8000528
        0x080004c4:    f000f8d8    ....    BL       __0printf$bare ; 0x8000678
        0x080004c8:    200a        .       MOVS     r0,#0xa
        0x080004ca:    f000f8fd    ....    BL       delay_ms ; 0x80006c8
        0x080004ce:    4814        .H      LDR      r0,[pc,#80] ; [0x8000520] = 0x8010000
        0x080004d0:    6840        @h      LDR      r0,[r0,#4]
        0x080004d2:    f000407f    ...@    AND      r0,r0,#0xff000000
        0x080004d6:    f1b06f00    ...o    CMP      r0,#0x8000000
        0x080004da:    d106        ..      BNE      0x80004ea ; RS485_Jump + 146
        0x080004dc:    2000        .       MOVS     r0,#0
        0x080004de:    4911        .I      LDR      r1,[pc,#68] ; [0x8000524] = 0x20000004
        0x080004e0:    7008        .p      STRB     r0,[r1,#0]
        0x080004e2:    480f        .H      LDR      r0,[pc,#60] ; [0x8000520] = 0x8010000
        0x080004e4:    f000fb28    ..(.    BL       iap_load_app ; 0x8000b38
        0x080004e8:    e002        ..      B        0x80004f0 ; RS485_Jump + 152
        0x080004ea:    a016        ..      ADR      r0,{pc}+0x5a ; 0x8000544
        0x080004ec:    f000f8c4    ....    BL       __0printf$bare ; 0x8000678
        0x080004f0:    2000        .       MOVS     r0,#0
        0x080004f2:    4902        .I      LDR      r1,[pc,#8] ; [0x80004fc] = 0x2000001c
        0x080004f4:    6008        .`      STR      r0,[r1,#0]
        0x080004f6:    bd10        ..      POP      {r4,pc}
    $d
        0x080004f8:    20001000    ...     DCD    536875008
        0x080004fc:    2000001c    ...     DCD    536870940
        0x08000500:    65636572    rece    DCD    1701012850
        0x08000504:    64657669    ived    DCD    1684371049
        0x08000508:    6d756a20     jum    DCD    1836411424
        0x0800050c:    6f632070    p co    DCD    1868767344
        0x08000510:    6e616d6d    mman    DCD    1851878765
        0x08000514:    20212064    d !     DCD    539041892
        0x08000518:    00000a0d    ....    DCD    2573
        0x0800051c:    20000000    ...     DCD    536870912
        0x08000520:    08010000    ....    DCD    134283264
        0x08000524:    20000004    ...     DCD    536870916
        0x08000528:    72617453    Star    DCD    1918989395
        0x0800052c:    75722074    t ru    DCD    1970413684
        0x08000530:    6e696e6e    nnin    DCD    1852403310
        0x08000534:    70612067    g ap    DCD    1885413479
        0x08000538:    6f632070    p co    DCD    1868767344
        0x0800053c:    0d216564    de!.    DCD    220292452
        0x08000540:    0000000a    ....    DCD    10
        0x08000544:    20707041    App     DCD    544239681
        0x08000548:    65646f63    code    DCD    1701080931
        0x0800054c:    20736920     is     DCD    544434464
        0x08000550:    656c6c69    ille    DCD    1701604457
        0x08000554:    216c6167    gal!    DCD    560750951
        0x08000558:    00000a0d    ....    DCD    2573
    $t
    i.SVC_Handler
    SVC_Handler
        0x0800055c:    4770        pG      BX       lr
    i.SysTick_Handler
    SysTick_Handler
        0x0800055e:    4770        pG      BX       lr
    i.SystemInit
    SystemInit
        0x08000560:    b510        ..      PUSH     {r4,lr}
        0x08000562:    481e        .H      LDR      r0,[pc,#120] ; [0x80005dc] = 0x40021000
        0x08000564:    6800        .h      LDR      r0,[r0,#0]
        0x08000566:    f0400001    @...    ORR      r0,r0,#1
        0x0800056a:    491c        .I      LDR      r1,[pc,#112] ; [0x80005dc] = 0x40021000
        0x0800056c:    6008        .`      STR      r0,[r1,#0]
        0x0800056e:    4608        .F      MOV      r0,r1
        0x08000570:    6840        @h      LDR      r0,[r0,#4]
        0x08000572:    491b        .I      LDR      r1,[pc,#108] ; [0x80005e0] = 0xe0ff000c
        0x08000574:    4008        .@      ANDS     r0,r0,r1
        0x08000576:    4919        .I      LDR      r1,[pc,#100] ; [0x80005dc] = 0x40021000
        0x08000578:    6048        H`      STR      r0,[r1,#4]
        0x0800057a:    4608        .F      MOV      r0,r1
        0x0800057c:    6800        .h      LDR      r0,[r0,#0]
        0x0800057e:    4919        .I      LDR      r1,[pc,#100] ; [0x80005e4] = 0xfef6ffff
        0x08000580:    4008        .@      ANDS     r0,r0,r1
        0x08000582:    4916        .I      LDR      r1,[pc,#88] ; [0x80005dc] = 0x40021000
        0x08000584:    6008        .`      STR      r0,[r1,#0]
        0x08000586:    4608        .F      MOV      r0,r1
        0x08000588:    6800        .h      LDR      r0,[r0,#0]
        0x0800058a:    f4202080     ..     BIC      r0,r0,#0x40000
        0x0800058e:    6008        .`      STR      r0,[r1,#0]
        0x08000590:    4608        .F      MOV      r0,r1
        0x08000592:    6840        @h      LDR      r0,[r0,#4]
        0x08000594:    4914        .I      LDR      r1,[pc,#80] ; [0x80005e8] = 0xdf00ffff
        0x08000596:    4008        .@      ANDS     r0,r0,r1
        0x08000598:    4910        .I      LDR      r1,[pc,#64] ; [0x80005dc] = 0x40021000
        0x0800059a:    6048        H`      STR      r0,[r1,#4]
        0x0800059c:    4608        .F      MOV      r0,r1
        0x0800059e:    6800        .h      LDR      r0,[r0,#0]
        0x080005a0:    f02050a0     ..P    BIC      r0,r0,#0x14000000
        0x080005a4:    6008        .`      STR      r0,[r1,#0]
        0x080005a6:    2000        .       MOVS     r0,#0
        0x080005a8:    62c8        .b      STR      r0,[r1,#0x2c]
        0x080005aa:    f44f007f    O...    MOV      r0,#0xff0000
        0x080005ae:    6088        .`      STR      r0,[r1,#8]
        0x080005b0:    2000        .       MOVS     r0,#0
        0x080005b2:    490a        .I      LDR      r1,[pc,#40] ; [0x80005dc] = 0x40021000
        0x080005b4:    3180        .1      ADDS     r1,r1,#0x80
        0x080005b6:    6008        .`      STR      r0,[r1,#0]
        0x080005b8:    4808        .H      LDR      r0,[pc,#32] ; [0x80005dc] = 0x40021000
        0x080005ba:    f8d00090    ....    LDR      r0,[r0,#0x90]
        0x080005be:    f0205080     ..P    BIC      r0,r0,#0x10000000
        0x080005c2:    4906        .I      LDR      r1,[pc,#24] ; [0x80005dc] = 0x40021000
        0x080005c4:    3190        .1      ADDS     r1,r1,#0x90
        0x080005c6:    6008        .`      STR      r0,[r1,#0]
        0x080005c8:    f44f0080    O...    MOV      r0,#0x400000
        0x080005cc:    1d09        ..      ADDS     r1,r1,#4
        0x080005ce:    6008        .`      STR      r0,[r1,#0]
        0x080005d0:    4806        .H      LDR      r0,[pc,#24] ; [0x80005ec] = 0x20003010
        0x080005d2:    1d09        ..      ADDS     r1,r1,#4
        0x080005d4:    6008        .`      STR      r0,[r1,#0]
        0x080005d6:    f000fd0f    ....    BL       system_clock_config ; 0x8000ff8
        0x080005da:    bd10        ..      POP      {r4,pc}
    $d
        0x080005dc:    40021000    ...@    DCD    1073876992
        0x080005e0:    e0ff000c    ....    DCD    3774808076
        0x080005e4:    fef6ffff    ....    DCD    4277600255
        0x080005e8:    df00ffff    ....    DCD    3741384703
        0x080005ec:    20003010    .0.     DCD    536883216
    $t
    i.UART3_IRQHandler
    UART3_IRQHandler
        0x080005f0:    b510        ..      PUSH     {r4,lr}
        0x080005f2:    490c        .I      LDR      r1,[pc,#48] ; [0x8000624] = 0x50305
        0x080005f4:    480c        .H      LDR      r0,[pc,#48] ; [0x8000628] = 0x40004c00
        0x080005f6:    f000fea3    ....    BL       usart_interrupt_flag_get ; 0x8001340
        0x080005fa:    b188        ..      CBZ      r0,0x8000620 ; UART3_IRQHandler + 48
        0x080005fc:    480a        .H      LDR      r0,[pc,#40] ; [0x8000628] = 0x40004c00
        0x080005fe:    f000fde5    ....    BL       usart_data_receive ; 0x80011cc
        0x08000602:    b2c4        ..      UXTB     r4,r0
        0x08000604:    4809        .H      LDR      r0,[pc,#36] ; [0x800062c] = 0x2000001c
        0x08000606:    6800        .h      LDR      r0,[r0,#0]
        0x08000608:    f5b04fa0    ...O    CMP      r0,#0x5000
        0x0800060c:    d208        ..      BCS      0x8000620 ; UART3_IRQHandler + 48
        0x0800060e:    4808        .H      LDR      r0,[pc,#32] ; [0x8000630] = 0x20001000
        0x08000610:    4906        .I      LDR      r1,[pc,#24] ; [0x800062c] = 0x2000001c
        0x08000612:    6809        .h      LDR      r1,[r1,#0]
        0x08000614:    5444        DT      STRB     r4,[r0,r1]
        0x08000616:    4805        .H      LDR      r0,[pc,#20] ; [0x800062c] = 0x2000001c
        0x08000618:    6800        .h      LDR      r0,[r0,#0]
        0x0800061a:    1c40        @.      ADDS     r0,r0,#1
        0x0800061c:    4903        .I      LDR      r1,[pc,#12] ; [0x800062c] = 0x2000001c
        0x0800061e:    6008        .`      STR      r0,[r1,#0]
        0x08000620:    bd10        ..      POP      {r4,pc}
    $d
        0x08000622:    0000        ..      DCW    0
        0x08000624:    00050305    ....    DCD    328453
        0x08000628:    40004c00    .L.@    DCD    1073761280
        0x0800062c:    2000001c    ...     DCD    536870940
        0x08000630:    20001000    ...     DCD    536875008
    $t
    i.USART0_IRQHandler
    USART0_IRQHandler
        0x08000634:    b510        ..      PUSH     {r4,lr}
        0x08000636:    490b        .I      LDR      r1,[pc,#44] ; [0x8000664] = 0x50305
        0x08000638:    480b        .H      LDR      r0,[pc,#44] ; [0x8000668] = 0x40013800
        0x0800063a:    f000fe81    ....    BL       usart_interrupt_flag_get ; 0x8001340
        0x0800063e:    b180        ..      CBZ      r0,0x8000662 ; USART0_IRQHandler + 46
        0x08000640:    4809        .H      LDR      r0,[pc,#36] ; [0x8000668] = 0x40013800
        0x08000642:    f000fdc3    ....    BL       usart_data_receive ; 0x80011cc
        0x08000646:    b2c4        ..      UXTB     r4,r0
        0x08000648:    4808        .H      LDR      r0,[pc,#32] ; [0x800066c] = 0x20000014
        0x0800064a:    6800        .h      LDR      r0,[r0,#0]
        0x0800064c:    28c8        .(      CMP      r0,#0xc8
        0x0800064e:    d208        ..      BCS      0x8000662 ; USART0_IRQHandler + 46
        0x08000650:    4807        .H      LDR      r0,[pc,#28] ; [0x8000670] = 0x2000002c
        0x08000652:    4906        .I      LDR      r1,[pc,#24] ; [0x800066c] = 0x20000014
        0x08000654:    6809        .h      LDR      r1,[r1,#0]
        0x08000656:    5444        DT      STRB     r4,[r0,r1]
        0x08000658:    4804        .H      LDR      r0,[pc,#16] ; [0x800066c] = 0x20000014
        0x0800065a:    6800        .h      LDR      r0,[r0,#0]
        0x0800065c:    1c40        @.      ADDS     r0,r0,#1
        0x0800065e:    4903        .I      LDR      r1,[pc,#12] ; [0x800066c] = 0x20000014
        0x08000660:    6008        .`      STR      r0,[r1,#0]
        0x08000662:    bd10        ..      POP      {r4,pc}
    $d
        0x08000664:    00050305    ....    DCD    328453
        0x08000668:    40013800    .8.@    DCD    1073821696
        0x0800066c:    20000014    ...     DCD    536870932
        0x08000670:    2000002c    ,..     DCD    536870956
    $t
    i.UsageFault_Handler
    UsageFault_Handler
        0x08000674:    bf00        ..      NOP      
        0x08000676:    e7fe        ..      B        0x8000676 ; UsageFault_Handler + 2
    i.__0printf$bare
    __0printf$bare
    __1printf$bare
    __2printf
        0x08000678:    4a01        .J      LDR      r2,[pc,#4] ; [0x8000680] = 0x80009e5
        0x0800067a:    4902        .I      LDR      r1,[pc,#8] ; [0x8000684] = 0x20000028
        0x0800067c:    f000b813    ....    B.W      _printf_core ; 0x80006a6
    $d
        0x08000680:    080009e5    ....    DCD    134220261
        0x08000684:    20000028    (..     DCD    536870952
    $t
    i.__scatterload_copy
    __scatterload_copy
        0x08000688:    e002        ..      B        0x8000690 ; __scatterload_copy + 8
        0x0800068a:    c808        ..      LDM      r0!,{r3}
        0x0800068c:    1f12        ..      SUBS     r2,r2,#4
        0x0800068e:    c108        ..      STM      r1!,{r3}
        0x08000690:    2a00        .*      CMP      r2,#0
        0x08000692:    d1fa        ..      BNE      0x800068a ; __scatterload_copy + 2
        0x08000694:    4770        pG      BX       lr
    i.__scatterload_null
    __scatterload_null
        0x08000696:    4770        pG      BX       lr
    i.__scatterload_zeroinit
    __scatterload_zeroinit
        0x08000698:    2000        .       MOVS     r0,#0
        0x0800069a:    e001        ..      B        0x80006a0 ; __scatterload_zeroinit + 8
        0x0800069c:    c101        ..      STM      r1!,{r0}
        0x0800069e:    1f12        ..      SUBS     r2,r2,#4
        0x080006a0:    2a00        .*      CMP      r2,#0
        0x080006a2:    d1fb        ..      BNE      0x800069c ; __scatterload_zeroinit + 4
        0x080006a4:    4770        pG      BX       lr
    i._printf_core
    _printf_core
        0x080006a6:    e92d41f0    -..A    PUSH     {r4-r8,lr}
        0x080006aa:    4616        .F      MOV      r6,r2
        0x080006ac:    460f        .F      MOV      r7,r1
        0x080006ae:    4604        .F      MOV      r4,r0
        0x080006b0:    2500        .%      MOVS     r5,#0
        0x080006b2:    e003        ..      B        0x80006bc ; _printf_core + 22
        0x080006b4:    4639        9F      MOV      r1,r7
        0x080006b6:    47b0        .G      BLX      r6
        0x080006b8:    1c64        d.      ADDS     r4,r4,#1
        0x080006ba:    1c6d        m.      ADDS     r5,r5,#1
        0x080006bc:    7820         x      LDRB     r0,[r4,#0]
        0x080006be:    2800        .(      CMP      r0,#0
        0x080006c0:    d1f8        ..      BNE      0x80006b4 ; _printf_core + 14
        0x080006c2:    4628        (F      MOV      r0,r5
        0x080006c4:    e8bd81f0    ....    POP      {r4-r8,pc}
    i.delay_ms
    delay_ms
        0x080006c8:    4601        .F      MOV      r1,r0
        0x080006ca:    4a11        .J      LDR      r2,[pc,#68] ; [0x8000710] = 0x2000000c
        0x080006cc:    8812        ..      LDRH     r2,[r2,#0]
        0x080006ce:    434a        JC      MULS     r2,r1,r2
        0x080006d0:    f04f23e0    O..#    MOV      r3,#0xe000e000
        0x080006d4:    615a        Za      STR      r2,[r3,#0x14]
        0x080006d6:    2200        ."      MOVS     r2,#0
        0x080006d8:    619a        .a      STR      r2,[r3,#0x18]
        0x080006da:    461a        .F      MOV      r2,r3
        0x080006dc:    6912        .i      LDR      r2,[r2,#0x10]
        0x080006de:    f0420201    B...    ORR      r2,r2,#1
        0x080006e2:    611a        .a      STR      r2,[r3,#0x10]
        0x080006e4:    bf00        ..      NOP      
        0x080006e6:    f04f22e0    O.."    MOV      r2,#0xe000e000
        0x080006ea:    6910        .i      LDR      r0,[r2,#0x10]
        0x080006ec:    f0000201    ....    AND      r2,r0,#1
        0x080006f0:    b11a        ..      CBZ      r2,0x80006fa ; delay_ms + 50
        0x080006f2:    f4003280    ...2    AND      r2,r0,#0x10000
        0x080006f6:    2a00        .*      CMP      r2,#0
        0x080006f8:    d0f5        ..      BEQ      0x80006e6 ; delay_ms + 30
        0x080006fa:    f04f22e0    O.."    MOV      r2,#0xe000e000
        0x080006fe:    6912        .i      LDR      r2,[r2,#0x10]
        0x08000700:    f0220201    "...    BIC      r2,r2,#1
        0x08000704:    f04f23e0    O..#    MOV      r3,#0xe000e000
        0x08000708:    611a        .a      STR      r2,[r3,#0x10]
        0x0800070a:    2200        ."      MOVS     r2,#0
        0x0800070c:    619a        .a      STR      r2,[r3,#0x18]
        0x0800070e:    4770        pG      BX       lr
    $d
        0x08000710:    2000000c    ...     DCD    536870924
    $t
    i.fmc_bank0_ready_wait
    fmc_bank0_ready_wait
        0x08000714:    b570        p.      PUSH     {r4-r6,lr}
        0x08000716:    4605        .F      MOV      r5,r0
        0x08000718:    2401        .$      MOVS     r4,#1
        0x0800071a:    bf00        ..      NOP      
        0x0800071c:    f000f80c    ....    BL       fmc_bank0_state_get ; 0x8000738
        0x08000720:    4604        .F      MOV      r4,r0
        0x08000722:    1e6d        m.      SUBS     r5,r5,#1
        0x08000724:    2c01        .,      CMP      r4,#1
        0x08000726:    d101        ..      BNE      0x800072c ; fmc_bank0_ready_wait + 24
        0x08000728:    2d00        .-      CMP      r5,#0
        0x0800072a:    d1f7        ..      BNE      0x800071c ; fmc_bank0_ready_wait + 8
        0x0800072c:    2c01        .,      CMP      r4,#1
        0x0800072e:    d100        ..      BNE      0x8000732 ; fmc_bank0_ready_wait + 30
        0x08000730:    2404        .$      MOVS     r4,#4
        0x08000732:    4620         F      MOV      r0,r4
        0x08000734:    bd70        p.      POP      {r4-r6,pc}
        0x08000736:    0000        ..      MOVS     r0,r0
    i.fmc_bank0_state_get
    fmc_bank0_state_get
        0x08000738:    2000        .       MOVS     r0,#0
        0x0800073a:    490a        .I      LDR      r1,[pc,#40] ; [0x8000764] = 0x40022000
        0x0800073c:    68c9        .h      LDR      r1,[r1,#0xc]
        0x0800073e:    f0010101    ....    AND      r1,r1,#1
        0x08000742:    b109        ..      CBZ      r1,0x8000748 ; fmc_bank0_state_get + 16
        0x08000744:    2001        .       MOVS     r0,#1
        0x08000746:    e00c        ..      B        0x8000762 ; fmc_bank0_state_get + 42
        0x08000748:    4906        .I      LDR      r1,[pc,#24] ; [0x8000764] = 0x40022000
        0x0800074a:    68c9        .h      LDR      r1,[r1,#0xc]
        0x0800074c:    f0010110    ....    AND      r1,r1,#0x10
        0x08000750:    b109        ..      CBZ      r1,0x8000756 ; fmc_bank0_state_get + 30
        0x08000752:    2003        .       MOVS     r0,#3
        0x08000754:    e005        ..      B        0x8000762 ; fmc_bank0_state_get + 42
        0x08000756:    4903        .I      LDR      r1,[pc,#12] ; [0x8000764] = 0x40022000
        0x08000758:    68c9        .h      LDR      r1,[r1,#0xc]
        0x0800075a:    f0010104    ....    AND      r1,r1,#4
        0x0800075e:    b101        ..      CBZ      r1,0x8000762 ; fmc_bank0_state_get + 42
        0x08000760:    2002        .       MOVS     r0,#2
        0x08000762:    4770        pG      BX       lr
    $d
        0x08000764:    40022000    . .@    DCD    1073881088
    $t
    i.fmc_bank1_ready_wait
    fmc_bank1_ready_wait
        0x08000768:    b570        p.      PUSH     {r4-r6,lr}
        0x0800076a:    4605        .F      MOV      r5,r0
        0x0800076c:    2401        .$      MOVS     r4,#1
        0x0800076e:    bf00        ..      NOP      
        0x08000770:    f000f80c    ....    BL       fmc_bank1_state_get ; 0x800078c
        0x08000774:    4604        .F      MOV      r4,r0
        0x08000776:    1e6d        m.      SUBS     r5,r5,#1
        0x08000778:    2c01        .,      CMP      r4,#1
        0x0800077a:    d101        ..      BNE      0x8000780 ; fmc_bank1_ready_wait + 24
        0x0800077c:    2d00        .-      CMP      r5,#0
        0x0800077e:    d1f7        ..      BNE      0x8000770 ; fmc_bank1_ready_wait + 8
        0x08000780:    2c01        .,      CMP      r4,#1
        0x08000782:    d100        ..      BNE      0x8000786 ; fmc_bank1_ready_wait + 30
        0x08000784:    2404        .$      MOVS     r4,#4
        0x08000786:    4620         F      MOV      r0,r4
        0x08000788:    bd70        p.      POP      {r4-r6,pc}
        0x0800078a:    0000        ..      MOVS     r0,r0
    i.fmc_bank1_state_get
    fmc_bank1_state_get
        0x0800078c:    2000        .       MOVS     r0,#0
        0x0800078e:    490a        .I      LDR      r1,[pc,#40] ; [0x80007b8] = 0x40022000
        0x08000790:    6cc9        .l      LDR      r1,[r1,#0x4c]
        0x08000792:    f0010101    ....    AND      r1,r1,#1
        0x08000796:    b109        ..      CBZ      r1,0x800079c ; fmc_bank1_state_get + 16
        0x08000798:    2001        .       MOVS     r0,#1
        0x0800079a:    e00c        ..      B        0x80007b6 ; fmc_bank1_state_get + 42
        0x0800079c:    4906        .I      LDR      r1,[pc,#24] ; [0x80007b8] = 0x40022000
        0x0800079e:    6cc9        .l      LDR      r1,[r1,#0x4c]
        0x080007a0:    f0010110    ....    AND      r1,r1,#0x10
        0x080007a4:    b109        ..      CBZ      r1,0x80007aa ; fmc_bank1_state_get + 30
        0x080007a6:    2003        .       MOVS     r0,#3
        0x080007a8:    e005        ..      B        0x80007b6 ; fmc_bank1_state_get + 42
        0x080007aa:    4903        .I      LDR      r1,[pc,#12] ; [0x80007b8] = 0x40022000
        0x080007ac:    6cc9        .l      LDR      r1,[r1,#0x4c]
        0x080007ae:    f0010104    ....    AND      r1,r1,#4
        0x080007b2:    b101        ..      CBZ      r1,0x80007b6 ; fmc_bank1_state_get + 42
        0x080007b4:    2002        .       MOVS     r0,#2
        0x080007b6:    4770        pG      BX       lr
    $d
        0x080007b8:    40022000    . .@    DCD    1073881088
    $t
    i.fmc_halfword_program
    fmc_halfword_program
        0x080007bc:    b570        p.      PUSH     {r4-r6,lr}
        0x080007be:    4604        .F      MOV      r4,r0
        0x080007c0:    460d        .F      MOV      r5,r1
        0x080007c2:    2600        .&      MOVS     r6,#0
        0x080007c4:    482a        *H      LDR      r0,[pc,#168] ; [0x8000870] = 0x1ffff7e0
        0x080007c6:    8800        ..      LDRH     r0,[r0,#0]
        0x080007c8:    f5b07f00    ....    CMP      r0,#0x200
        0x080007cc:    d935        5.      BLS      0x800083a ; fmc_halfword_program + 126
        0x080007ce:    4829        )H      LDR      r0,[pc,#164] ; [0x8000874] = 0x807ffff
        0x080007d0:    4284        .B      CMP      r4,r0
        0x080007d2:    d219        ..      BCS      0x8000808 ; fmc_halfword_program + 76
        0x080007d4:    f44f2070    O.p     MOV      r0,#0xf0000
        0x080007d8:    f7ffff9c    ....    BL       fmc_bank0_ready_wait ; 0x8000714
        0x080007dc:    4606        .F      MOV      r6,r0
        0x080007de:    2e00        ..      CMP      r6,#0
        0x080007e0:    d143        C.      BNE      0x800086a ; fmc_halfword_program + 174
        0x080007e2:    4825        %H      LDR      r0,[pc,#148] ; [0x8000878] = 0x40022000
        0x080007e4:    6900        .i      LDR      r0,[r0,#0x10]
        0x080007e6:    f0400001    @...    ORR      r0,r0,#1
        0x080007ea:    4923        #I      LDR      r1,[pc,#140] ; [0x8000878] = 0x40022000
        0x080007ec:    6108        .a      STR      r0,[r1,#0x10]
        0x080007ee:    8025        %.      STRH     r5,[r4,#0]
        0x080007f0:    f44f2070    O.p     MOV      r0,#0xf0000
        0x080007f4:    f7ffff8e    ....    BL       fmc_bank0_ready_wait ; 0x8000714
        0x080007f8:    4606        .F      MOV      r6,r0
        0x080007fa:    481f        .H      LDR      r0,[pc,#124] ; [0x8000878] = 0x40022000
        0x080007fc:    6900        .i      LDR      r0,[r0,#0x10]
        0x080007fe:    f0200001     ...    BIC      r0,r0,#1
        0x08000802:    491d        .I      LDR      r1,[pc,#116] ; [0x8000878] = 0x40022000
        0x08000804:    6108        .a      STR      r0,[r1,#0x10]
        0x08000806:    e030        0.      B        0x800086a ; fmc_halfword_program + 174
        0x08000808:    f44f2070    O.p     MOV      r0,#0xf0000
        0x0800080c:    f7ffffac    ....    BL       fmc_bank1_ready_wait ; 0x8000768
        0x08000810:    4606        .F      MOV      r6,r0
        0x08000812:    bb56        V.      CBNZ     r6,0x800086a ; fmc_halfword_program + 174
        0x08000814:    4818        .H      LDR      r0,[pc,#96] ; [0x8000878] = 0x40022000
        0x08000816:    6d00        .m      LDR      r0,[r0,#0x50]
        0x08000818:    f0400001    @...    ORR      r0,r0,#1
        0x0800081c:    4916        .I      LDR      r1,[pc,#88] ; [0x8000878] = 0x40022000
        0x0800081e:    6508        .e      STR      r0,[r1,#0x50]
        0x08000820:    8025        %.      STRH     r5,[r4,#0]
        0x08000822:    f44f2070    O.p     MOV      r0,#0xf0000
        0x08000826:    f7ffff9f    ....    BL       fmc_bank1_ready_wait ; 0x8000768
        0x0800082a:    4606        .F      MOV      r6,r0
        0x0800082c:    4812        .H      LDR      r0,[pc,#72] ; [0x8000878] = 0x40022000
        0x0800082e:    6d00        .m      LDR      r0,[r0,#0x50]
        0x08000830:    f0200001     ...    BIC      r0,r0,#1
        0x08000834:    4910        .I      LDR      r1,[pc,#64] ; [0x8000878] = 0x40022000
        0x08000836:    6508        .e      STR      r0,[r1,#0x50]
        0x08000838:    e017        ..      B        0x800086a ; fmc_halfword_program + 174
        0x0800083a:    f44f2070    O.p     MOV      r0,#0xf0000
        0x0800083e:    f7ffff69    ..i.    BL       fmc_bank0_ready_wait ; 0x8000714
        0x08000842:    4606        .F      MOV      r6,r0
        0x08000844:    b98e        ..      CBNZ     r6,0x800086a ; fmc_halfword_program + 174
        0x08000846:    480c        .H      LDR      r0,[pc,#48] ; [0x8000878] = 0x40022000
        0x08000848:    6900        .i      LDR      r0,[r0,#0x10]
        0x0800084a:    f0400001    @...    ORR      r0,r0,#1
        0x0800084e:    490a        .I      LDR      r1,[pc,#40] ; [0x8000878] = 0x40022000
        0x08000850:    6108        .a      STR      r0,[r1,#0x10]
        0x08000852:    8025        %.      STRH     r5,[r4,#0]
        0x08000854:    f44f2070    O.p     MOV      r0,#0xf0000
        0x08000858:    f7ffff5c    ..\.    BL       fmc_bank0_ready_wait ; 0x8000714
        0x0800085c:    4606        .F      MOV      r6,r0
        0x0800085e:    4806        .H      LDR      r0,[pc,#24] ; [0x8000878] = 0x40022000
        0x08000860:    6900        .i      LDR      r0,[r0,#0x10]
        0x08000862:    f0200001     ...    BIC      r0,r0,#1
        0x08000866:    4904        .I      LDR      r1,[pc,#16] ; [0x8000878] = 0x40022000
        0x08000868:    6108        .a      STR      r0,[r1,#0x10]
        0x0800086a:    4630        0F      MOV      r0,r6
        0x0800086c:    bd70        p.      POP      {r4-r6,pc}
    $d
        0x0800086e:    0000        ..      DCW    0
        0x08000870:    1ffff7e0    ....    DCD    536868832
        0x08000874:    0807ffff    ....    DCD    134742015
        0x08000878:    40022000    . .@    DCD    1073881088
    $t
    i.fmc_lock
    fmc_lock
        0x0800087c:    4808        .H      LDR      r0,[pc,#32] ; [0x80008a0] = 0x40022000
        0x0800087e:    6900        .i      LDR      r0,[r0,#0x10]
        0x08000880:    f0400080    @...    ORR      r0,r0,#0x80
        0x08000884:    4906        .I      LDR      r1,[pc,#24] ; [0x80008a0] = 0x40022000
        0x08000886:    6108        .a      STR      r0,[r1,#0x10]
        0x08000888:    4806        .H      LDR      r0,[pc,#24] ; [0x80008a4] = 0x1ffff7e0
        0x0800088a:    8800        ..      LDRH     r0,[r0,#0]
        0x0800088c:    f5b07f00    ....    CMP      r0,#0x200
        0x08000890:    d904        ..      BLS      0x800089c ; fmc_lock + 32
        0x08000892:    4608        .F      MOV      r0,r1
        0x08000894:    6d00        .m      LDR      r0,[r0,#0x50]
        0x08000896:    f0400080    @...    ORR      r0,r0,#0x80
        0x0800089a:    6508        .e      STR      r0,[r1,#0x50]
        0x0800089c:    4770        pG      BX       lr
    $d
        0x0800089e:    0000        ..      DCW    0
        0x080008a0:    40022000    . .@    DCD    1073881088
        0x080008a4:    1ffff7e0    ....    DCD    536868832
    $t
    i.fmc_page_erase
    fmc_page_erase
        0x080008a8:    b570        p.      PUSH     {r4-r6,lr}
        0x080008aa:    4605        .F      MOV      r5,r0
        0x080008ac:    4839        9H      LDR      r0,[pc,#228] ; [0x8000994] = 0x1ffff7e0
        0x080008ae:    8800        ..      LDRH     r0,[r0,#0]
        0x080008b0:    f5b07f00    ....    CMP      r0,#0x200
        0x080008b4:    d94c        L.      BLS      0x8000950 ; fmc_page_erase + 168
        0x080008b6:    4838        8H      LDR      r0,[pc,#224] ; [0x8000998] = 0x807ffff
        0x080008b8:    4285        .B      CMP      r5,r0
        0x080008ba:    d220         .      BCS      0x80008fe ; fmc_page_erase + 86
        0x080008bc:    f44f2070    O.p     MOV      r0,#0xf0000
        0x080008c0:    f7ffff28    ..(.    BL       fmc_bank0_ready_wait ; 0x8000714
        0x080008c4:    4604        .F      MOV      r4,r0
        0x080008c6:    2c00        .,      CMP      r4,#0
        0x080008c8:    d161        a.      BNE      0x800098e ; fmc_page_erase + 230
        0x080008ca:    4834        4H      LDR      r0,[pc,#208] ; [0x800099c] = 0x40022000
        0x080008cc:    6900        .i      LDR      r0,[r0,#0x10]
        0x080008ce:    f0400002    @...    ORR      r0,r0,#2
        0x080008d2:    4932        2I      LDR      r1,[pc,#200] ; [0x800099c] = 0x40022000
        0x080008d4:    6108        .a      STR      r0,[r1,#0x10]
        0x080008d6:    4608        .F      MOV      r0,r1
        0x080008d8:    6145        Ea      STR      r5,[r0,#0x14]
        0x080008da:    6900        .i      LDR      r0,[r0,#0x10]
        0x080008dc:    f0400040    @.@.    ORR      r0,r0,#0x40
        0x080008e0:    6108        .a      STR      r0,[r1,#0x10]
        0x080008e2:    bf00        ..      NOP      
        0x080008e4:    bf00        ..      NOP      
        0x080008e6:    f44f2070    O.p     MOV      r0,#0xf0000
        0x080008ea:    f7ffff13    ....    BL       fmc_bank0_ready_wait ; 0x8000714
        0x080008ee:    4604        .F      MOV      r4,r0
        0x080008f0:    482a        *H      LDR      r0,[pc,#168] ; [0x800099c] = 0x40022000
        0x080008f2:    6900        .i      LDR      r0,[r0,#0x10]
        0x080008f4:    f0200002     ...    BIC      r0,r0,#2
        0x080008f8:    4928        (I      LDR      r1,[pc,#160] ; [0x800099c] = 0x40022000
        0x080008fa:    6108        .a      STR      r0,[r1,#0x10]
        0x080008fc:    e047        G.      B        0x800098e ; fmc_page_erase + 230
        0x080008fe:    f44f2070    O.p     MOV      r0,#0xf0000
        0x08000902:    f7ffff31    ..1.    BL       fmc_bank1_ready_wait ; 0x8000768
        0x08000906:    4604        .F      MOV      r4,r0
        0x08000908:    2c00        .,      CMP      r4,#0
        0x0800090a:    d140        @.      BNE      0x800098e ; fmc_page_erase + 230
        0x0800090c:    4823        #H      LDR      r0,[pc,#140] ; [0x800099c] = 0x40022000
        0x0800090e:    6d00        .m      LDR      r0,[r0,#0x50]
        0x08000910:    f0400002    @...    ORR      r0,r0,#2
        0x08000914:    4921        !I      LDR      r1,[pc,#132] ; [0x800099c] = 0x40022000
        0x08000916:    6508        .e      STR      r0,[r1,#0x50]
        0x08000918:    4608        .F      MOV      r0,r1
        0x0800091a:    6545        Ee      STR      r5,[r0,#0x54]
        0x0800091c:    69c0        .i      LDR      r0,[r0,#0x1c]
        0x0800091e:    f0000002    ....    AND      r0,r0,#2
        0x08000922:    b108        ..      CBZ      r0,0x8000928 ; fmc_page_erase + 128
        0x08000924:    4608        .F      MOV      r0,r1
        0x08000926:    6145        Ea      STR      r5,[r0,#0x14]
        0x08000928:    481c        .H      LDR      r0,[pc,#112] ; [0x800099c] = 0x40022000
        0x0800092a:    6d00        .m      LDR      r0,[r0,#0x50]
        0x0800092c:    f0400040    @.@.    ORR      r0,r0,#0x40
        0x08000930:    491a        .I      LDR      r1,[pc,#104] ; [0x800099c] = 0x40022000
        0x08000932:    6508        .e      STR      r0,[r1,#0x50]
        0x08000934:    bf00        ..      NOP      
        0x08000936:    bf00        ..      NOP      
        0x08000938:    f44f2070    O.p     MOV      r0,#0xf0000
        0x0800093c:    f7ffff14    ....    BL       fmc_bank1_ready_wait ; 0x8000768
        0x08000940:    4604        .F      MOV      r4,r0
        0x08000942:    4816        .H      LDR      r0,[pc,#88] ; [0x800099c] = 0x40022000
        0x08000944:    6d00        .m      LDR      r0,[r0,#0x50]
        0x08000946:    f0200002     ...    BIC      r0,r0,#2
        0x0800094a:    4914        .I      LDR      r1,[pc,#80] ; [0x800099c] = 0x40022000
        0x0800094c:    6508        .e      STR      r0,[r1,#0x50]
        0x0800094e:    e01e        ..      B        0x800098e ; fmc_page_erase + 230
        0x08000950:    f44f2070    O.p     MOV      r0,#0xf0000
        0x08000954:    f7fffede    ....    BL       fmc_bank0_ready_wait ; 0x8000714
        0x08000958:    4604        .F      MOV      r4,r0
        0x0800095a:    b9c4        ..      CBNZ     r4,0x800098e ; fmc_page_erase + 230
        0x0800095c:    480f        .H      LDR      r0,[pc,#60] ; [0x800099c] = 0x40022000
        0x0800095e:    6900        .i      LDR      r0,[r0,#0x10]
        0x08000960:    f0400002    @...    ORR      r0,r0,#2
        0x08000964:    490d        .I      LDR      r1,[pc,#52] ; [0x800099c] = 0x40022000
        0x08000966:    6108        .a      STR      r0,[r1,#0x10]
        0x08000968:    4608        .F      MOV      r0,r1
        0x0800096a:    6145        Ea      STR      r5,[r0,#0x14]
        0x0800096c:    6900        .i      LDR      r0,[r0,#0x10]
        0x0800096e:    f0400040    @.@.    ORR      r0,r0,#0x40
        0x08000972:    6108        .a      STR      r0,[r1,#0x10]
        0x08000974:    bf00        ..      NOP      
        0x08000976:    bf00        ..      NOP      
        0x08000978:    f44f2070    O.p     MOV      r0,#0xf0000
        0x0800097c:    f7fffeca    ....    BL       fmc_bank0_ready_wait ; 0x8000714
        0x08000980:    4604        .F      MOV      r4,r0
        0x08000982:    4806        .H      LDR      r0,[pc,#24] ; [0x800099c] = 0x40022000
        0x08000984:    6900        .i      LDR      r0,[r0,#0x10]
        0x08000986:    f0200002     ...    BIC      r0,r0,#2
        0x0800098a:    4904        .I      LDR      r1,[pc,#16] ; [0x800099c] = 0x40022000
        0x0800098c:    6108        .a      STR      r0,[r1,#0x10]
        0x0800098e:    4620         F      MOV      r0,r4
        0x08000990:    bd70        p.      POP      {r4-r6,pc}
    $d
        0x08000992:    0000        ..      DCW    0
        0x08000994:    1ffff7e0    ....    DCD    536868832
        0x08000998:    0807ffff    ....    DCD    134742015
        0x0800099c:    40022000    . .@    DCD    1073881088
    $t
    i.fmc_unlock
    fmc_unlock
        0x080009a0:    480c        .H      LDR      r0,[pc,#48] ; [0x80009d4] = 0x40022000
        0x080009a2:    6900        .i      LDR      r0,[r0,#0x10]
        0x080009a4:    f0000080    ....    AND      r0,r0,#0x80
        0x080009a8:    b120         .      CBZ      r0,0x80009b4 ; fmc_unlock + 20
        0x080009aa:    480b        .H      LDR      r0,[pc,#44] ; [0x80009d8] = 0x45670123
        0x080009ac:    4909        .I      LDR      r1,[pc,#36] ; [0x80009d4] = 0x40022000
        0x080009ae:    6048        H`      STR      r0,[r1,#4]
        0x080009b0:    480a        .H      LDR      r0,[pc,#40] ; [0x80009dc] = 0xcdef89ab
        0x080009b2:    6048        H`      STR      r0,[r1,#4]
        0x080009b4:    480a        .H      LDR      r0,[pc,#40] ; [0x80009e0] = 0x1ffff7e0
        0x080009b6:    8800        ..      LDRH     r0,[r0,#0]
        0x080009b8:    f5b07f00    ....    CMP      r0,#0x200
        0x080009bc:    d909        ..      BLS      0x80009d2 ; fmc_unlock + 50
        0x080009be:    4805        .H      LDR      r0,[pc,#20] ; [0x80009d4] = 0x40022000
        0x080009c0:    6d00        .m      LDR      r0,[r0,#0x50]
        0x080009c2:    f0000080    ....    AND      r0,r0,#0x80
        0x080009c6:    b120         .      CBZ      r0,0x80009d2 ; fmc_unlock + 50
        0x080009c8:    4803        .H      LDR      r0,[pc,#12] ; [0x80009d8] = 0x45670123
        0x080009ca:    4902        .I      LDR      r1,[pc,#8] ; [0x80009d4] = 0x40022000
        0x080009cc:    6448        Hd      STR      r0,[r1,#0x44]
        0x080009ce:    4803        .H      LDR      r0,[pc,#12] ; [0x80009dc] = 0xcdef89ab
        0x080009d0:    6448        Hd      STR      r0,[r1,#0x44]
        0x080009d2:    4770        pG      BX       lr
    $d
        0x080009d4:    40022000    . .@    DCD    1073881088
        0x080009d8:    45670123    #.gE    DCD    1164378403
        0x080009dc:    cdef89ab    ....    DCD    3455027627
        0x080009e0:    1ffff7e0    ....    DCD    536868832
    $t
    i.fputc
    fputc
        0x080009e4:    b570        p.      PUSH     {r4-r6,lr}
        0x080009e6:    4604        .F      MOV      r4,r0
        0x080009e8:    460d        .F      MOV      r5,r1
        0x080009ea:    b2e1        ..      UXTB     r1,r4
        0x080009ec:    4805        .H      LDR      r0,[pc,#20] ; [0x8000a04] = 0x40013800
        0x080009ee:    f000fbf2    ....    BL       usart_data_transmit ; 0x80011d6
        0x080009f2:    bf00        ..      NOP      
        0x080009f4:    2107        .!      MOVS     r1,#7
        0x080009f6:    4803        .H      LDR      r0,[pc,#12] ; [0x8000a04] = 0x40013800
        0x080009f8:    f000fc65    ..e.    BL       usart_flag_get ; 0x80012c6
        0x080009fc:    2800        .(      CMP      r0,#0
        0x080009fe:    d0f9        ..      BEQ      0x80009f4 ; fputc + 16
        0x08000a00:    4620         F      MOV      r0,r4
        0x08000a02:    bd70        p.      POP      {r4-r6,pc}
    $d
        0x08000a04:    40013800    .8.@    DCD    1073821696
    $t
    i.gpio_bit_reset
    gpio_bit_reset
        0x08000a08:    6141        Aa      STR      r1,[r0,#0x14]
        0x08000a0a:    4770        pG      BX       lr
    i.gpio_bit_set
    gpio_bit_set
        0x08000a0c:    6101        .a      STR      r1,[r0,#0x10]
        0x08000a0e:    4770        pG      BX       lr
    i.gpio_init
    gpio_init
        0x08000a10:    b5f0        ..      PUSH     {r4-r7,lr}
        0x08000a12:    4604        .F      MOV      r4,r0
        0x08000a14:    4616        .F      MOV      r6,r2
        0x08000a16:    2500        .%      MOVS     r5,#0
        0x08000a18:    2200        ."      MOVS     r2,#0
        0x08000a1a:    f001050f    ....    AND      r5,r1,#0xf
        0x08000a1e:    f0010710    ....    AND      r7,r1,#0x10
        0x08000a22:    b107        ..      CBZ      r7,0x8000a26 ; gpio_init + 22
        0x08000a24:    4335        5C      ORRS     r5,r5,r6
        0x08000a26:    2000        .       MOVS     r0,#0
        0x08000a28:    e01e        ..      B        0x8000a68 ; gpio_init + 88
        0x08000a2a:    2701        .'      MOVS     r7,#1
        0x08000a2c:    4087        .@      LSLS     r7,r7,r0
        0x08000a2e:    401f        .@      ANDS     r7,r7,r3
        0x08000a30:    b1c7        ..      CBZ      r7,0x8000a64 ; gpio_init + 84
        0x08000a32:    6822        "h      LDR      r2,[r4,#0]
        0x08000a34:    ea4f0c80    O...    LSL      r12,r0,#2
        0x08000a38:    270f        .'      MOVS     r7,#0xf
        0x08000a3a:    fa07f70c    ....    LSL      r7,r7,r12
        0x08000a3e:    43ba        .C      BICS     r2,r2,r7
        0x08000a40:    0087        ..      LSLS     r7,r0,#2
        0x08000a42:    fa05f707    ....    LSL      r7,r5,r7
        0x08000a46:    433a        :C      ORRS     r2,r2,r7
        0x08000a48:    2928        ()      CMP      r1,#0x28
        0x08000a4a:    d104        ..      BNE      0x8000a56 ; gpio_init + 70
        0x08000a4c:    2701        .'      MOVS     r7,#1
        0x08000a4e:    4087        .@      LSLS     r7,r7,r0
        0x08000a50:    401f        .@      ANDS     r7,r7,r3
        0x08000a52:    6167        ga      STR      r7,[r4,#0x14]
        0x08000a54:    e005        ..      B        0x8000a62 ; gpio_init + 82
        0x08000a56:    2948        H)      CMP      r1,#0x48
        0x08000a58:    d103        ..      BNE      0x8000a62 ; gpio_init + 82
        0x08000a5a:    2701        .'      MOVS     r7,#1
        0x08000a5c:    4087        .@      LSLS     r7,r7,r0
        0x08000a5e:    401f        .@      ANDS     r7,r7,r3
        0x08000a60:    6127        'a      STR      r7,[r4,#0x10]
        0x08000a62:    6022        "`      STR      r2,[r4,#0]
        0x08000a64:    1c47        G.      ADDS     r7,r0,#1
        0x08000a66:    b2b8        ..      UXTH     r0,r7
        0x08000a68:    2808        .(      CMP      r0,#8
        0x08000a6a:    d3de        ..      BCC      0x8000a2a ; gpio_init + 26
        0x08000a6c:    2008        .       MOVS     r0,#8
        0x08000a6e:    e022        ".      B        0x8000ab6 ; gpio_init + 166
        0x08000a70:    2701        .'      MOVS     r7,#1
        0x08000a72:    4087        .@      LSLS     r7,r7,r0
        0x08000a74:    401f        .@      ANDS     r7,r7,r3
        0x08000a76:    b1e7        ..      CBZ      r7,0x8000ab2 ; gpio_init + 162
        0x08000a78:    6862        bh      LDR      r2,[r4,#4]
        0x08000a7a:    f1a00708    ....    SUB      r7,r0,#8
        0x08000a7e:    ea4f0c87    O...    LSL      r12,r7,#2
        0x08000a82:    270f        .'      MOVS     r7,#0xf
        0x08000a84:    fa07f70c    ....    LSL      r7,r7,r12
        0x08000a88:    43ba        .C      BICS     r2,r2,r7
        0x08000a8a:    f1a00708    ....    SUB      r7,r0,#8
        0x08000a8e:    00bf        ..      LSLS     r7,r7,#2
        0x08000a90:    fa05f707    ....    LSL      r7,r5,r7
        0x08000a94:    433a        :C      ORRS     r2,r2,r7
        0x08000a96:    2928        ()      CMP      r1,#0x28
        0x08000a98:    d104        ..      BNE      0x8000aa4 ; gpio_init + 148
        0x08000a9a:    2701        .'      MOVS     r7,#1
        0x08000a9c:    4087        .@      LSLS     r7,r7,r0
        0x08000a9e:    401f        .@      ANDS     r7,r7,r3
        0x08000aa0:    6167        ga      STR      r7,[r4,#0x14]
        0x08000aa2:    e005        ..      B        0x8000ab0 ; gpio_init + 160
        0x08000aa4:    2948        H)      CMP      r1,#0x48
        0x08000aa6:    d103        ..      BNE      0x8000ab0 ; gpio_init + 160
        0x08000aa8:    2701        .'      MOVS     r7,#1
        0x08000aaa:    4087        .@      LSLS     r7,r7,r0
        0x08000aac:    401f        .@      ANDS     r7,r7,r3
        0x08000aae:    6127        'a      STR      r7,[r4,#0x10]
        0x08000ab0:    6062        b`      STR      r2,[r4,#4]
        0x08000ab2:    1c47        G.      ADDS     r7,r0,#1
        0x08000ab4:    b2b8        ..      UXTH     r0,r7
        0x08000ab6:    2810        .(      CMP      r0,#0x10
        0x08000ab8:    d3da        ..      BCC      0x8000a70 ; gpio_init + 96
        0x08000aba:    bdf0        ..      POP      {r4-r7,pc}
    i.gpio_pin_remap1_config
    gpio_pin_remap1_config
        0x08000abc:    b510        ..      PUSH     {r4,lr}
        0x08000abe:    4603        .F      MOV      r3,r0
        0x08000ac0:    2000        .       MOVS     r0,#0
        0x08000ac2:    b1da        ..      CBZ      r2,0x8000afc ; gpio_pin_remap1_config + 64
        0x08000ac4:    2b02        .+      CMP      r3,#2
        0x08000ac6:    d104        ..      BNE      0x8000ad2 ; gpio_pin_remap1_config + 22
        0x08000ac8:    4c1a        .L      LDR      r4,[pc,#104] ; [0x8000b34] = 0x40010000
        0x08000aca:    6be0        .k      LDR      r0,[r4,#0x3c]
        0x08000acc:    4308        .C      ORRS     r0,r0,r1
        0x08000ace:    63e0        .c      STR      r0,[r4,#0x3c]
        0x08000ad0:    e02f        /.      B        0x8000b32 ; gpio_pin_remap1_config + 118
        0x08000ad2:    2b03        .+      CMP      r3,#3
        0x08000ad4:    d104        ..      BNE      0x8000ae0 ; gpio_pin_remap1_config + 36
        0x08000ad6:    4c17        .L      LDR      r4,[pc,#92] ; [0x8000b34] = 0x40010000
        0x08000ad8:    6c20         l      LDR      r0,[r4,#0x40]
        0x08000ada:    4308        .C      ORRS     r0,r0,r1
        0x08000adc:    6420         d      STR      r0,[r4,#0x40]
        0x08000ade:    e028        (.      B        0x8000b32 ; gpio_pin_remap1_config + 118
        0x08000ae0:    2b04        .+      CMP      r3,#4
        0x08000ae2:    d104        ..      BNE      0x8000aee ; gpio_pin_remap1_config + 50
        0x08000ae4:    4c13        .L      LDR      r4,[pc,#76] ; [0x8000b34] = 0x40010000
        0x08000ae6:    6c60        `l      LDR      r0,[r4,#0x44]
        0x08000ae8:    4308        .C      ORRS     r0,r0,r1
        0x08000aea:    6460        `d      STR      r0,[r4,#0x44]
        0x08000aec:    e021        !.      B        0x8000b32 ; gpio_pin_remap1_config + 118
        0x08000aee:    2b05        .+      CMP      r3,#5
        0x08000af0:    d11f        ..      BNE      0x8000b32 ; gpio_pin_remap1_config + 118
        0x08000af2:    4c10        .L      LDR      r4,[pc,#64] ; [0x8000b34] = 0x40010000
        0x08000af4:    6ca0        .l      LDR      r0,[r4,#0x48]
        0x08000af6:    4308        .C      ORRS     r0,r0,r1
        0x08000af8:    64a0        .d      STR      r0,[r4,#0x48]
        0x08000afa:    e01a        ..      B        0x8000b32 ; gpio_pin_remap1_config + 118
        0x08000afc:    2b02        .+      CMP      r3,#2
        0x08000afe:    d104        ..      BNE      0x8000b0a ; gpio_pin_remap1_config + 78
        0x08000b00:    4c0c        .L      LDR      r4,[pc,#48] ; [0x8000b34] = 0x40010000
        0x08000b02:    6be0        .k      LDR      r0,[r4,#0x3c]
        0x08000b04:    4388        .C      BICS     r0,r0,r1
        0x08000b06:    63e0        .c      STR      r0,[r4,#0x3c]
        0x08000b08:    e013        ..      B        0x8000b32 ; gpio_pin_remap1_config + 118
        0x08000b0a:    2b03        .+      CMP      r3,#3
        0x08000b0c:    d104        ..      BNE      0x8000b18 ; gpio_pin_remap1_config + 92
        0x08000b0e:    4c09        .L      LDR      r4,[pc,#36] ; [0x8000b34] = 0x40010000
        0x08000b10:    6c20         l      LDR      r0,[r4,#0x40]
        0x08000b12:    4388        .C      BICS     r0,r0,r1
        0x08000b14:    6420         d      STR      r0,[r4,#0x40]
        0x08000b16:    e00c        ..      B        0x8000b32 ; gpio_pin_remap1_config + 118
        0x08000b18:    2b04        .+      CMP      r3,#4
        0x08000b1a:    d104        ..      BNE      0x8000b26 ; gpio_pin_remap1_config + 106
        0x08000b1c:    4c05        .L      LDR      r4,[pc,#20] ; [0x8000b34] = 0x40010000
        0x08000b1e:    6c60        `l      LDR      r0,[r4,#0x44]
        0x08000b20:    4388        .C      BICS     r0,r0,r1
        0x08000b22:    6460        `d      STR      r0,[r4,#0x44]
        0x08000b24:    e005        ..      B        0x8000b32 ; gpio_pin_remap1_config + 118
        0x08000b26:    2b05        .+      CMP      r3,#5
        0x08000b28:    d103        ..      BNE      0x8000b32 ; gpio_pin_remap1_config + 118
        0x08000b2a:    4c02        .L      LDR      r4,[pc,#8] ; [0x8000b34] = 0x40010000
        0x08000b2c:    6ca0        .l      LDR      r0,[r4,#0x48]
        0x08000b2e:    4388        .C      BICS     r0,r0,r1
        0x08000b30:    64a0        .d      STR      r0,[r4,#0x48]
        0x08000b32:    bd10        ..      POP      {r4,pc}
    $d
        0x08000b34:    40010000    ...@    DCD    1073807360
    $t
    i.iap_load_app
    iap_load_app
        0x08000b38:    b510        ..      PUSH     {r4,lr}
        0x08000b3a:    4604        .F      MOV      r4,r0
        0x08000b3c:    6820         h      LDR      r0,[r4,#0]
        0x08000b3e:    4907        .I      LDR      r1,[pc,#28] ; [0x8000b5c] = 0x2ffe0000
        0x08000b40:    4008        .@      ANDS     r0,r0,r1
        0x08000b42:    f1b05f00    ..._    CMP      r0,#0x20000000
        0x08000b46:    d108        ..      BNE      0x8000b5a ; iap_load_app + 34
        0x08000b48:    6860        `h      LDR      r0,[r4,#4]
        0x08000b4a:    4905        .I      LDR      r1,[pc,#20] ; [0x8000b60] = 0x20000020
        0x08000b4c:    6008        .`      STR      r0,[r1,#0]
        0x08000b4e:    6820         h      LDR      r0,[r4,#0]
        0x08000b50:    f7fffb36    ..6.    BL       MSR_MSP ; 0x80001c0
        0x08000b54:    4802        .H      LDR      r0,[pc,#8] ; [0x8000b60] = 0x20000020
        0x08000b56:    6800        .h      LDR      r0,[r0,#0]
        0x08000b58:    4780        .G      BLX      r0
        0x08000b5a:    bd10        ..      POP      {r4,pc}
    $d
        0x08000b5c:    2ffe0000    .../    DCD    805175296
        0x08000b60:    20000020     ..     DCD    536870944
    $t
    i.iap_write_appbin
    iap_write_appbin
        0x08000b64:    e92d5ff0    -.._    PUSH     {r4-r12,lr}
        0x08000b68:    4606        .F      MOV      r6,r0
        0x08000b6a:    460f        .F      MOV      r7,r1
        0x08000b6c:    4690        .F      MOV      r8,r2
        0x08000b6e:    2400        .$      MOVS     r4,#0
        0x08000b70:    46b3        .F      MOV      r11,r6
        0x08000b72:    463d        =F      MOV      r5,r7
        0x08000b74:    46a1        .F      MOV      r9,r4
        0x08000b76:    e01c        ..      B        0x8000bb2 ; iap_write_appbin + 78
        0x08000b78:    7868        hx      LDRB     r0,[r5,#1]
        0x08000b7a:    ea4f2a00    O..*    LSL      r10,r0,#8
        0x08000b7e:    7828        (x      LDRB     r0,[r5,#0]
        0x08000b80:    4450        PD      ADD      r0,r0,r10
        0x08000b82:    fa1ffa80    ....    UXTH     r10,r0
        0x08000b86:    1cad        ..      ADDS     r5,r5,#2
        0x08000b88:    4620         F      MOV      r0,r4
        0x08000b8a:    1c61        a.      ADDS     r1,r4,#1
        0x08000b8c:    b28c        ..      UXTH     r4,r1
        0x08000b8e:    490e        .I      LDR      r1,[pc,#56] ; [0x8000bc8] = 0x20006000
        0x08000b90:    f821a010    !...    STRH     r10,[r1,r0,LSL #1]
        0x08000b94:    f5b46f80    ...o    CMP      r4,#0x400
        0x08000b98:    d107        ..      BNE      0x8000baa ; iap_write_appbin + 70
        0x08000b9a:    2400        .$      MOVS     r4,#0
        0x08000b9c:    f44f6280    O..b    MOV      r2,#0x400
        0x08000ba0:    4658        XF      MOV      r0,r11
        0x08000ba2:    f7fffb5f    .._.    BL       GDFLASH_Write ; 0x8000264
        0x08000ba6:    f50b6b00    ...k    ADD      r11,r11,#0x800
        0x08000baa:    f1090002    ....    ADD      r0,r9,#2
        0x08000bae:    fa1ff980    ....    UXTH     r9,r0
        0x08000bb2:    45c1        .E      CMP      r9,r8
        0x08000bb4:    d3e0        ..      BCC      0x8000b78 ; iap_write_appbin + 20
        0x08000bb6:    b124        $.      CBZ      r4,0x8000bc2 ; iap_write_appbin + 94
        0x08000bb8:    4622        "F      MOV      r2,r4
        0x08000bba:    4903        .I      LDR      r1,[pc,#12] ; [0x8000bc8] = 0x20006000
        0x08000bbc:    4658        XF      MOV      r0,r11
        0x08000bbe:    f7fffb51    ..Q.    BL       GDFLASH_Write ; 0x8000264
        0x08000bc2:    e8bd9ff0    ....    POP      {r4-r12,pc}
    $d
        0x08000bc6:    0000        ..      DCW    0
        0x08000bc8:    20006000    .`.     DCD    536895488
    $t
    i.led_gpio_init
    led_gpio_init
        0x08000bcc:    b510        ..      PUSH     {r4,lr}
        0x08000bce:    f2406004    @..`    MOV      r0,#0x604
        0x08000bd2:    f000f96f    ..o.    BL       rcu_periph_clock_enable ; 0x8000eb4
        0x08000bd6:    f2406005    @..`    MOV      r0,#0x605
        0x08000bda:    f000f96b    ..k.    BL       rcu_periph_clock_enable ; 0x8000eb4
        0x08000bde:    f44f4380    O..C    MOV      r3,#0x4000
        0x08000be2:    2203        ."      MOVS     r2,#3
        0x08000be4:    2110        .!      MOVS     r1,#0x10
        0x08000be6:    4809        .H      LDR      r0,[pc,#36] ; [0x8000c0c] = 0x40011000
        0x08000be8:    f7ffff12    ....    BL       gpio_init ; 0x8000a10
        0x08000bec:    2304        .#      MOVS     r3,#4
        0x08000bee:    2203        ."      MOVS     r2,#3
        0x08000bf0:    2110        .!      MOVS     r1,#0x10
        0x08000bf2:    4807        .H      LDR      r0,[pc,#28] ; [0x8000c10] = 0x40011400
        0x08000bf4:    f7ffff0c    ....    BL       gpio_init ; 0x8000a10
        0x08000bf8:    f44f4180    O..A    MOV      r1,#0x4000
        0x08000bfc:    4803        .H      LDR      r0,[pc,#12] ; [0x8000c0c] = 0x40011000
        0x08000bfe:    f7ffff03    ....    BL       gpio_bit_reset ; 0x8000a08
        0x08000c02:    2104        .!      MOVS     r1,#4
        0x08000c04:    4802        .H      LDR      r0,[pc,#8] ; [0x8000c10] = 0x40011400
        0x08000c06:    f7ffff01    ....    BL       gpio_bit_set ; 0x8000a0c
        0x08000c0a:    bd10        ..      POP      {r4,pc}
    $d
        0x08000c0c:    40011000    ...@    DCD    1073811456
        0x08000c10:    40011400    ...@    DCD    1073812480
    $t
    i.led_toggle
    led_toggle
        0x08000c14:    b510        ..      PUSH     {r4,lr}
        0x08000c16:    f44f4180    O..A    MOV      r1,#0x4000
        0x08000c1a:    4808        .H      LDR      r0,[pc,#32] ; [0x8000c3c] = 0x40011000
        0x08000c1c:    f7fffef6    ....    BL       gpio_bit_set ; 0x8000a0c
        0x08000c20:    f44f70fa    O..p    MOV      r0,#0x1f4
        0x08000c24:    f7fffd50    ..P.    BL       delay_ms ; 0x80006c8
        0x08000c28:    f44f4180    O..A    MOV      r1,#0x4000
        0x08000c2c:    4803        .H      LDR      r0,[pc,#12] ; [0x8000c3c] = 0x40011000
        0x08000c2e:    f7fffeeb    ....    BL       gpio_bit_reset ; 0x8000a08
        0x08000c32:    f44f70fa    O..p    MOV      r0,#0x1f4
        0x08000c36:    f7fffd47    ..G.    BL       delay_ms ; 0x80006c8
        0x08000c3a:    bd10        ..      POP      {r4,pc}
    $d
        0x08000c3c:    40011000    ...@    DCD    1073811456
    $t
    i.main
    main
        0x08000c40:    f44f7040    O.@p    MOV      r0,#0x300
        0x08000c44:    f000f876    ..v.    BL       nvic_priority_group_set ; 0x8000d34
        0x08000c48:    f000f9ee    ....    BL       systick_config ; 0x8001028
        0x08000c4c:    f000fa70    ..p.    BL       usart_config ; 0x8001130
        0x08000c50:    f7ffffbc    ....    BL       led_gpio_init ; 0x8000bcc
        0x08000c54:    f44f30e1    O..0    MOV      r0,#0x1c200
        0x08000c58:    f7fffb92    ....    BL       RS485_Init ; 0x8000380
        0x08000c5c:    e00e        ..      B        0x8000c7c ; main + 60
        0x08000c5e:    f7ffffd9    ....    BL       led_toggle ; 0x8000c14
        0x08000c62:    4807        .H      LDR      r0,[pc,#28] ; [0x8000c80] = 0x20000000
        0x08000c64:    6800        .h      LDR      r0,[r0,#0]
        0x08000c66:    4907        .I      LDR      r1,[pc,#28] ; [0x8000c84] = 0x2000001c
        0x08000c68:    6809        .h      LDR      r1,[r1,#0]
        0x08000c6a:    4288        .B      CMP      r0,r1
        0x08000c6c:    d102        ..      BNE      0x8000c74 ; main + 52
        0x08000c6e:    f7fffbf3    ....    BL       RS485_Jump ; 0x8000458
        0x08000c72:    e003        ..      B        0x8000c7c ; main + 60
        0x08000c74:    4803        .H      LDR      r0,[pc,#12] ; [0x8000c84] = 0x2000001c
        0x08000c76:    6800        .h      LDR      r0,[r0,#0]
        0x08000c78:    4901        .I      LDR      r1,[pc,#4] ; [0x8000c80] = 0x20000000
        0x08000c7a:    6008        .`      STR      r0,[r1,#0]
        0x08000c7c:    e7ef        ..      B        0x8000c5e ; main + 30
    $d
        0x08000c7e:    0000        ..      DCW    0
        0x08000c80:    20000000    ...     DCD    536870912
        0x08000c84:    2000001c    ...     DCD    536870940
    $t
    i.nvic_irq_enable
    nvic_irq_enable
        0x08000c88:    e92d41f0    -..A    PUSH     {r4-r8,lr}
        0x08000c8c:    4603        .F      MOV      r3,r0
        0x08000c8e:    460d        .F      MOV      r5,r1
        0x08000c90:    4616        .F      MOV      r6,r2
        0x08000c92:    2400        .$      MOVS     r4,#0
        0x08000c94:    2700        .'      MOVS     r7,#0
        0x08000c96:    46a0        .F      MOV      r8,r4
        0x08000c98:    4824        $H      LDR      r0,[pc,#144] ; [0x8000d2c] = 0xe000ed0c
        0x08000c9a:    6800        .h      LDR      r0,[r0,#0]
        0x08000c9c:    f40060e0    ...`    AND      r0,r0,#0x700
        0x08000ca0:    f5b06fa0    ...o    CMP      r0,#0x500
        0x08000ca4:    d015        ..      BEQ      0x8000cd2 ; nvic_irq_enable + 74
        0x08000ca6:    dc06        ..      BGT      0x8000cb6 ; nvic_irq_enable + 46
        0x08000ca8:    f5b07f40    ..@.    CMP      r0,#0x300
        0x08000cac:    d018        ..      BEQ      0x8000ce0 ; nvic_irq_enable + 88
        0x08000cae:    f5b06f80    ...o    CMP      r0,#0x400
        0x08000cb2:    d119        ..      BNE      0x8000ce8 ; nvic_irq_enable + 96
        0x08000cb4:    e010        ..      B        0x8000cd8 ; nvic_irq_enable + 80
        0x08000cb6:    f5b06fc0    ...o    CMP      r0,#0x600
        0x08000cba:    d006        ..      BEQ      0x8000cca ; nvic_irq_enable + 66
        0x08000cbc:    f5b06fe0    ...o    CMP      r0,#0x700
        0x08000cc0:    d112        ..      BNE      0x8000ce8 ; nvic_irq_enable + 96
        0x08000cc2:    2700        .'      MOVS     r7,#0
        0x08000cc4:    f04f0804    O...    MOV      r8,#4
        0x08000cc8:    e015        ..      B        0x8000cf6 ; nvic_irq_enable + 110
        0x08000cca:    2701        .'      MOVS     r7,#1
        0x08000ccc:    f04f0803    O...    MOV      r8,#3
        0x08000cd0:    e011        ..      B        0x8000cf6 ; nvic_irq_enable + 110
        0x08000cd2:    2702        .'      MOVS     r7,#2
        0x08000cd4:    46b8        .F      MOV      r8,r7
        0x08000cd6:    e00e        ..      B        0x8000cf6 ; nvic_irq_enable + 110
        0x08000cd8:    2703        .'      MOVS     r7,#3
        0x08000cda:    f04f0801    O...    MOV      r8,#1
        0x08000cde:    e00a        ..      B        0x8000cf6 ; nvic_irq_enable + 110
        0x08000ce0:    2704        .'      MOVS     r7,#4
        0x08000ce2:    f04f0800    O...    MOV      r8,#0
        0x08000ce6:    e006        ..      B        0x8000cf6 ; nvic_irq_enable + 110
        0x08000ce8:    f44f60a0    O..`    MOV      r0,#0x500
        0x08000cec:    f000f822    ..".    BL       nvic_priority_group_set ; 0x8000d34
        0x08000cf0:    2702        .'      MOVS     r7,#2
        0x08000cf2:    46b8        .F      MOV      r8,r7
        0x08000cf4:    bf00        ..      NOP      
        0x08000cf6:    bf00        ..      NOP      
        0x08000cf8:    f1c70004    ....    RSB      r0,r7,#4
        0x08000cfc:    fa05f400    ....    LSL      r4,r5,r0
        0x08000d00:    f1c80104    ....    RSB      r1,r8,#4
        0x08000d04:    200f        .       MOVS     r0,#0xf
        0x08000d06:    40c8        .@      LSRS     r0,r0,r1
        0x08000d08:    4030        0@      ANDS     r0,r0,r6
        0x08000d0a:    4304        .C      ORRS     r4,r4,r0
        0x08000d0c:    0124        $.      LSLS     r4,r4,#4
        0x08000d0e:    4808        .H      LDR      r0,[pc,#32] ; [0x8000d30] = 0xe000e400
        0x08000d10:    54c4        .T      STRB     r4,[r0,r3]
        0x08000d12:    f003011f    ....    AND      r1,r3,#0x1f
        0x08000d16:    2001        .       MOVS     r0,#1
        0x08000d18:    4088        .@      LSLS     r0,r0,r1
        0x08000d1a:    1159        Y.      ASRS     r1,r3,#5
        0x08000d1c:    0089        ..      LSLS     r1,r1,#2
        0x08000d1e:    f10121e0    ...!    ADD      r1,r1,#0xe000e000
        0x08000d22:    f8c10100    ....    STR      r0,[r1,#0x100]
        0x08000d26:    e8bd81f0    ....    POP      {r4-r8,pc}
    $d
        0x08000d2a:    0000        ..      DCW    0
        0x08000d2c:    e000ed0c    ....    DCD    3758157068
        0x08000d30:    e000e400    ....    DCD    3758154752
    $t
    i.nvic_priority_group_set
    nvic_priority_group_set
        0x08000d34:    4902        .I      LDR      r1,[pc,#8] ; [0x8000d40] = 0x5fa0000
        0x08000d36:    4301        .C      ORRS     r1,r1,r0
        0x08000d38:    4a02        .J      LDR      r2,[pc,#8] ; [0x8000d44] = 0xe000ed0c
        0x08000d3a:    6011        .`      STR      r1,[r2,#0]
        0x08000d3c:    4770        pG      BX       lr
    $d
        0x08000d3e:    0000        ..      DCW    0
        0x08000d40:    05fa0000    ....    DCD    100270080
        0x08000d44:    e000ed0c    ....    DCD    3758157068
    $t
    i.rcu_clock_freq_get
    rcu_clock_freq_get
        0x08000d48:    e92d4ff1    -..O    PUSH     {r0,r4-r11,lr}
        0x08000d4c:    b08d        ..      SUB      sp,sp,#0x34
        0x08000d4e:    2000        .       MOVS     r0,#0
        0x08000d50:    900b        ..      STR      r0,[sp,#0x2c]
        0x08000d52:    a051        Q.      ADR      r0,{pc}+0x146 ; 0x8000e98
        0x08000d54:    e8904c00    ...L    LDM      r0,{r10,r11,lr}
        0x08000d58:    68c0        .h      LDR      r0,[r0,#0xc]
        0x08000d5a:    e9cdbe05    ....    STRD     r11,lr,[sp,#0x14]
        0x08000d5e:    f8cda010    ....    STR      r10,[sp,#0x10]
        0x08000d62:    9007        ..      STR      r0,[sp,#0x1c]
        0x08000d64:    f20f1a34    ..4.    ADR.W    r10,{pc}+0x138 ; 0x8000e9c
        0x08000d68:    e9da0a00    ....    LDRD     r0,r10,[r10,#0]
        0x08000d6c:    e9cd0a02    ....    STRD     r0,r10,[sp,#8]
        0x08000d70:    f20f1a28    ..(.    ADR.W    r10,{pc}+0x12c ; 0x8000e9c
        0x08000d74:    e9da0a00    ....    LDRD     r0,r10,[r10,#0]
        0x08000d78:    e9cd0a00    ....    STRD     r0,r10,[sp,#0]
        0x08000d7c:    484a        JH      LDR      r0,[pc,#296] ; [0x8000ea8] = 0x40021000
        0x08000d7e:    6840        @h      LDR      r0,[r0,#4]
        0x08000d80:    f3c00081    ....    UBFX     r0,r0,#2,#2
        0x08000d84:    900c        ..      STR      r0,[sp,#0x30]
        0x08000d86:    980c        ..      LDR      r0,[sp,#0x30]
        0x08000d88:    b120         .      CBZ      r0,0x8000d94 ; rcu_clock_freq_get + 76
        0x08000d8a:    2801        .(      CMP      r0,#1
        0x08000d8c:    d004        ..      BEQ      0x8000d98 ; rcu_clock_freq_get + 80
        0x08000d8e:    2802        .(      CMP      r0,#2
        0x08000d90:    d14e        N.      BNE      0x8000e30 ; rcu_clock_freq_get + 232
        0x08000d92:    e003        ..      B        0x8000d9c ; rcu_clock_freq_get + 84
        0x08000d94:    4945        EI      LDR      r1,[pc,#276] ; [0x8000eac] = 0x7a1200
        0x08000d96:    e04d        M.      B        0x8000e34 ; rcu_clock_freq_get + 236
        0x08000d98:    4944        DI      LDR      r1,[pc,#272] ; [0x8000eac] = 0x7a1200
        0x08000d9a:    e04b        K.      B        0x8000e34 ; rcu_clock_freq_get + 236
        0x08000d9c:    4842        BH      LDR      r0,[pc,#264] ; [0x8000ea8] = 0x40021000
        0x08000d9e:    6840        @h      LDR      r0,[r0,#4]
        0x08000da0:    f4003980    ...9    AND      r9,r0,#0x10000
        0x08000da4:    f5b93f80    ...?    CMP      r9,#0x10000
        0x08000da8:    d126        &.      BNE      0x8000df8 ; rcu_clock_freq_get + 176
        0x08000daa:    4b40        @K      LDR      r3,[pc,#256] ; [0x8000eac] = 0x7a1200
        0x08000dac:    483e        >H      LDR      r0,[pc,#248] ; [0x8000ea8] = 0x40021000
        0x08000dae:    6ac0        .j      LDR      r0,[r0,#0x2c]
        0x08000db0:    f4003080    ...0    AND      r0,r0,#0x10000
        0x08000db4:    900a        ..      STR      r0,[sp,#0x28]
        0x08000db6:    980a        ..      LDR      r0,[sp,#0x28]
        0x08000db8:    f5b03f80    ...?    CMP      r0,#0x10000
        0x08000dbc:    d112        ..      BNE      0x8000de4 ; rcu_clock_freq_get + 156
        0x08000dbe:    483a        :H      LDR      r0,[pc,#232] ; [0x8000ea8] = 0x40021000
        0x08000dc0:    6ac0        .j      LDR      r0,[r0,#0x2c]
        0x08000dc2:    f3c01003    ....    UBFX     r0,r0,#4,#4
        0x08000dc6:    1c40        @.      ADDS     r0,r0,#1
        0x08000dc8:    9008        ..      STR      r0,[sp,#0x20]
        0x08000dca:    4837        7H      LDR      r0,[pc,#220] ; [0x8000ea8] = 0x40021000
        0x08000dcc:    6ac0        .j      LDR      r0,[r0,#0x2c]
        0x08000dce:    f3c02003    ...     UBFX     r0,r0,#8,#4
        0x08000dd2:    1c87        ..      ADDS     r7,r0,#2
        0x08000dd4:    2f11        ./      CMP      r7,#0x11
        0x08000dd6:    d100        ..      BNE      0x8000dda ; rcu_clock_freq_get + 146
        0x08000dd8:    2714        .'      MOVS     r7,#0x14
        0x08000dda:    9808        ..      LDR      r0,[sp,#0x20]
        0x08000ddc:    fbb3f0f0    ....    UDIV     r0,r3,r0
        0x08000de0:    fb00f307    ....    MUL      r3,r0,r7
        0x08000de4:    4830        0H      LDR      r0,[pc,#192] ; [0x8000ea8] = 0x40021000
        0x08000de6:    6ac0        .j      LDR      r0,[r0,#0x2c]
        0x08000de8:    f000000f    ....    AND      r0,r0,#0xf
        0x08000dec:    1c40        @.      ADDS     r0,r0,#1
        0x08000dee:    9009        ..      STR      r0,[sp,#0x24]
        0x08000df0:    9809        ..      LDR      r0,[sp,#0x24]
        0x08000df2:    fbb3f3f0    ....    UDIV     r3,r3,r0
        0x08000df6:    e000        ..      B        0x8000dfa ; rcu_clock_freq_get + 178
        0x08000df8:    4b2d        -K      LDR      r3,[pc,#180] ; [0x8000eb0] = 0x3d0900
        0x08000dfa:    482b        +H      LDR      r0,[pc,#172] ; [0x8000ea8] = 0x40021000
        0x08000dfc:    6840        @h      LDR      r0,[r0,#4]
        0x08000dfe:    f3c04283    ...B    UBFX     r2,r0,#18,#4
        0x08000e02:    4829        )H      LDR      r0,[pc,#164] ; [0x8000ea8] = 0x40021000
        0x08000e04:    6840        @h      LDR      r0,[r0,#4]
        0x08000e06:    f0005000    ...P    AND      r0,r0,#0x20000000
        0x08000e0a:    b108        ..      CBZ      r0,0x8000e10 ; rcu_clock_freq_get + 200
        0x08000e0c:    f0420210    B...    ORR      r2,r2,#0x10
        0x08000e10:    2a0d        .*      CMP      r2,#0xd
        0x08000e12:    d105        ..      BNE      0x8000e20 ; rcu_clock_freq_get + 216
        0x08000e14:    eb030043    ..C.    ADD      r0,r3,r3,LSL #1
        0x08000e18:    0040        @.      LSLS     r0,r0,#1
        0x08000e1a:    eb000153    ..S.    ADD      r1,r0,r3,LSR #1
        0x08000e1e:    e006        ..      B        0x8000e2e ; rcu_clock_freq_get + 230
        0x08000e20:    2a0f        .*      CMP      r2,#0xf
        0x08000e22:    d201        ..      BCS      0x8000e28 ; rcu_clock_freq_get + 224
        0x08000e24:    1c92        ..      ADDS     r2,r2,#2
        0x08000e26:    e000        ..      B        0x8000e2a ; rcu_clock_freq_get + 226
        0x08000e28:    1c52        R.      ADDS     r2,r2,#1
        0x08000e2a:    fb03f102    ....    MUL      r1,r3,r2
        0x08000e2e:    e001        ..      B        0x8000e34 ; rcu_clock_freq_get + 236
        0x08000e30:    491e        .I      LDR      r1,[pc,#120] ; [0x8000eac] = 0x7a1200
        0x08000e32:    bf00        ..      NOP      
        0x08000e34:    bf00        ..      NOP      
        0x08000e36:    481c        .H      LDR      r0,[pc,#112] ; [0x8000ea8] = 0x40021000
        0x08000e38:    6840        @h      LDR      r0,[r0,#4]
        0x08000e3a:    f3c01503    ....    UBFX     r5,r0,#4,#4
        0x08000e3e:    a804        ..      ADD      r0,sp,#0x10
        0x08000e40:    5d46        F]      LDRB     r6,[r0,r5]
        0x08000e42:    fa21f406    !...    LSR      r4,r1,r6
        0x08000e46:    4818        .H      LDR      r0,[pc,#96] ; [0x8000ea8] = 0x40021000
        0x08000e48:    6840        @h      LDR      r0,[r0,#4]
        0x08000e4a:    f3c02502    ...%    UBFX     r5,r0,#8,#3
        0x08000e4e:    a802        ..      ADD      r0,sp,#8
        0x08000e50:    5d46        F]      LDRB     r6,[r0,r5]
        0x08000e52:    fa24fc06    $...    LSR      r12,r4,r6
        0x08000e56:    4814        .H      LDR      r0,[pc,#80] ; [0x8000ea8] = 0x40021000
        0x08000e58:    6840        @h      LDR      r0,[r0,#4]
        0x08000e5a:    f3c025c2    ...%    UBFX     r5,r0,#11,#3
        0x08000e5e:    f81d6005    ...`    LDRB     r6,[sp,r5]
        0x08000e62:    fa24f806    $...    LSR      r8,r4,r6
        0x08000e66:    980d        ..      LDR      r0,[sp,#0x34]
        0x08000e68:    b130        0.      CBZ      r0,0x8000e78 ; rcu_clock_freq_get + 304
        0x08000e6a:    2801        .(      CMP      r0,#1
        0x08000e6c:    d006        ..      BEQ      0x8000e7c ; rcu_clock_freq_get + 308
        0x08000e6e:    2802        .(      CMP      r0,#2
        0x08000e70:    d006        ..      BEQ      0x8000e80 ; rcu_clock_freq_get + 312
        0x08000e72:    2803        .(      CMP      r0,#3
        0x08000e74:    d10a        ..      BNE      0x8000e8c ; rcu_clock_freq_get + 324
        0x08000e76:    e006        ..      B        0x8000e86 ; rcu_clock_freq_get + 318
        0x08000e78:    910b        ..      STR      r1,[sp,#0x2c]
        0x08000e7a:    e008        ..      B        0x8000e8e ; rcu_clock_freq_get + 326
        0x08000e7c:    940b        ..      STR      r4,[sp,#0x2c]
        0x08000e7e:    e006        ..      B        0x8000e8e ; rcu_clock_freq_get + 326
        0x08000e80:    f8cdc02c    ..,.    STR      r12,[sp,#0x2c]
        0x08000e84:    e003        ..      B        0x8000e8e ; rcu_clock_freq_get + 326
        0x08000e86:    f8cd802c    ..,.    STR      r8,[sp,#0x2c]
        0x08000e8a:    e000        ..      B        0x8000e8e ; rcu_clock_freq_get + 326
        0x08000e8c:    bf00        ..      NOP      
        0x08000e8e:    bf00        ..      NOP      
        0x08000e90:    980b        ..      LDR      r0,[sp,#0x2c]
        0x08000e92:    b00e        ..      ADD      sp,sp,#0x38
        0x08000e94:    e8bd8ff0    ....    POP      {r4-r11,pc}
    $d
        0x08000e98:    00000000    ....    DCD    0
        0x08000e9c:    00000000    ....    DCD    0
        0x08000ea0:    04030201    ....    DCD    67305985
        0x08000ea4:    09080706    ....    DCD    151521030
        0x08000ea8:    40021000    ...@    DCD    1073876992
        0x08000eac:    007a1200    ..z.    DCD    8000000
        0x08000eb0:    003d0900    ..=.    DCD    4000000
    $t
    i.rcu_periph_clock_enable
    rcu_periph_clock_enable
        0x08000eb4:    4a06        .J      LDR      r2,[pc,#24] ; [0x8000ed0] = 0x40021000
        0x08000eb6:    eb021190    ....    ADD      r1,r2,r0,LSR #6
        0x08000eba:    6809        .h      LDR      r1,[r1,#0]
        0x08000ebc:    f000031f    ....    AND      r3,r0,#0x1f
        0x08000ec0:    2201        ."      MOVS     r2,#1
        0x08000ec2:    409a        .@      LSLS     r2,r2,r3
        0x08000ec4:    4311        .C      ORRS     r1,r1,r2
        0x08000ec6:    4b02        .K      LDR      r3,[pc,#8] ; [0x8000ed0] = 0x40021000
        0x08000ec8:    eb031290    ....    ADD      r2,r3,r0,LSR #6
        0x08000ecc:    6011        .`      STR      r1,[r2,#0]
        0x08000ece:    4770        pG      BX       lr
    $d
        0x08000ed0:    40021000    ...@    DCD    1073876992
    $t
    i.rcu_periph_reset_disable
    rcu_periph_reset_disable
        0x08000ed4:    4a06        .J      LDR      r2,[pc,#24] ; [0x8000ef0] = 0x40021000
        0x08000ed6:    eb021190    ....    ADD      r1,r2,r0,LSR #6
        0x08000eda:    6809        .h      LDR      r1,[r1,#0]
        0x08000edc:    f000031f    ....    AND      r3,r0,#0x1f
        0x08000ee0:    2201        ."      MOVS     r2,#1
        0x08000ee2:    409a        .@      LSLS     r2,r2,r3
        0x08000ee4:    4391        .C      BICS     r1,r1,r2
        0x08000ee6:    4b02        .K      LDR      r3,[pc,#8] ; [0x8000ef0] = 0x40021000
        0x08000ee8:    eb031290    ....    ADD      r2,r3,r0,LSR #6
        0x08000eec:    6011        .`      STR      r1,[r2,#0]
        0x08000eee:    4770        pG      BX       lr
    $d
        0x08000ef0:    40021000    ...@    DCD    1073876992
    $t
    i.rcu_periph_reset_enable
    rcu_periph_reset_enable
        0x08000ef4:    4a06        .J      LDR      r2,[pc,#24] ; [0x8000f10] = 0x40021000
        0x08000ef6:    eb021190    ....    ADD      r1,r2,r0,LSR #6
        0x08000efa:    6809        .h      LDR      r1,[r1,#0]
        0x08000efc:    f000031f    ....    AND      r3,r0,#0x1f
        0x08000f00:    2201        ."      MOVS     r2,#1
        0x08000f02:    409a        .@      LSLS     r2,r2,r3
        0x08000f04:    4311        .C      ORRS     r1,r1,r2
        0x08000f06:    4b02        .K      LDR      r3,[pc,#8] ; [0x8000f10] = 0x40021000
        0x08000f08:    eb031290    ....    ADD      r2,r3,r0,LSR #6
        0x08000f0c:    6011        .`      STR      r1,[r2,#0]
        0x08000f0e:    4770        pG      BX       lr
    $d
        0x08000f10:    40021000    ...@    DCD    1073876992
    $t
    i.system_clock_120m_hxtal
    system_clock_120m_hxtal
        0x08000f14:    2000        .       MOVS     r0,#0
        0x08000f16:    2100        .!      MOVS     r1,#0
        0x08000f18:    4a33        3J      LDR      r2,[pc,#204] ; [0x8000fe8] = 0x40021000
        0x08000f1a:    6812        .h      LDR      r2,[r2,#0]
        0x08000f1c:    f4423280    B..2    ORR      r2,r2,#0x10000
        0x08000f20:    4b31        1K      LDR      r3,[pc,#196] ; [0x8000fe8] = 0x40021000
        0x08000f22:    601a        .`      STR      r2,[r3,#0]
        0x08000f24:    bf00        ..      NOP      
        0x08000f26:    1c40        @.      ADDS     r0,r0,#1
        0x08000f28:    4a2f        /J      LDR      r2,[pc,#188] ; [0x8000fe8] = 0x40021000
        0x08000f2a:    6812        .h      LDR      r2,[r2,#0]
        0x08000f2c:    f4023100    ...1    AND      r1,r2,#0x20000
        0x08000f30:    b919        ..      CBNZ     r1,0x8000f3a ; system_clock_120m_hxtal + 38
        0x08000f32:    f64f72ff    O..r    MOV      r2,#0xffff
        0x08000f36:    4290        .B      CMP      r0,r2
        0x08000f38:    d1f5        ..      BNE      0x8000f26 ; system_clock_120m_hxtal + 18
        0x08000f3a:    4a2b        +J      LDR      r2,[pc,#172] ; [0x8000fe8] = 0x40021000
        0x08000f3c:    6812        .h      LDR      r2,[r2,#0]
        0x08000f3e:    f4023200    ...2    AND      r2,r2,#0x20000
        0x08000f42:    b90a        ..      CBNZ     r2,0x8000f48 ; system_clock_120m_hxtal + 52
        0x08000f44:    bf00        ..      NOP      
        0x08000f46:    e7fe        ..      B        0x8000f46 ; system_clock_120m_hxtal + 50
        0x08000f48:    4a27        'J      LDR      r2,[pc,#156] ; [0x8000fe8] = 0x40021000
        0x08000f4a:    6852        Rh      LDR      r2,[r2,#4]
        0x08000f4c:    4b26        &K      LDR      r3,[pc,#152] ; [0x8000fe8] = 0x40021000
        0x08000f4e:    605a        Z`      STR      r2,[r3,#4]
        0x08000f50:    461a        .F      MOV      r2,r3
        0x08000f52:    6852        Rh      LDR      r2,[r2,#4]
        0x08000f54:    605a        Z`      STR      r2,[r3,#4]
        0x08000f56:    461a        .F      MOV      r2,r3
        0x08000f58:    6852        Rh      LDR      r2,[r2,#4]
        0x08000f5a:    f4426280    B..b    ORR      r2,r2,#0x400
        0x08000f5e:    605a        Z`      STR      r2,[r3,#4]
        0x08000f60:    461a        .F      MOV      r2,r3
        0x08000f62:    6852        Rh      LDR      r2,[r2,#4]
        0x08000f64:    4b21        !K      LDR      r3,[pc,#132] ; [0x8000fec] = 0xdfc0ffff
        0x08000f66:    401a        .@      ANDS     r2,r2,r3
        0x08000f68:    4b1f        .K      LDR      r3,[pc,#124] ; [0x8000fe8] = 0x40021000
        0x08000f6a:    605a        Z`      STR      r2,[r3,#4]
        0x08000f6c:    461a        .F      MOV      r2,r3
        0x08000f6e:    6852        Rh      LDR      r2,[r2,#4]
        0x08000f70:    f4421224    B.$.    ORR      r2,r2,#0x290000
        0x08000f74:    605a        Z`      STR      r2,[r3,#4]
        0x08000f76:    461a        .F      MOV      r2,r3
        0x08000f78:    6ad2        .j      LDR      r2,[r2,#0x2c]
        0x08000f7a:    4b1d        .K      LDR      r3,[pc,#116] ; [0x8000ff0] = 0xfffef000
        0x08000f7c:    401a        .@      ANDS     r2,r2,r3
        0x08000f7e:    4b1a        .K      LDR      r3,[pc,#104] ; [0x8000fe8] = 0x40021000
        0x08000f80:    62da        .b      STR      r2,[r3,#0x2c]
        0x08000f82:    461a        .F      MOV      r2,r3
        0x08000f84:    6ad2        .j      LDR      r2,[r2,#0x2c]
        0x08000f86:    4b1b        .K      LDR      r3,[pc,#108] ; [0x8000ff4] = 0x10831
        0x08000f88:    431a        .C      ORRS     r2,r2,r3
        0x08000f8a:    4b17        .K      LDR      r3,[pc,#92] ; [0x8000fe8] = 0x40021000
        0x08000f8c:    62da        .b      STR      r2,[r3,#0x2c]
        0x08000f8e:    461a        .F      MOV      r2,r3
        0x08000f90:    6812        .h      LDR      r2,[r2,#0]
        0x08000f92:    f0426280    B..b    ORR      r2,r2,#0x4000000
        0x08000f96:    601a        .`      STR      r2,[r3,#0]
        0x08000f98:    bf00        ..      NOP      
        0x08000f9a:    4a13        .J      LDR      r2,[pc,#76] ; [0x8000fe8] = 0x40021000
        0x08000f9c:    6812        .h      LDR      r2,[r2,#0]
        0x08000f9e:    f0026200    ...b    AND      r2,r2,#0x8000000
        0x08000fa2:    2a00        .*      CMP      r2,#0
        0x08000fa4:    d0f9        ..      BEQ      0x8000f9a ; system_clock_120m_hxtal + 134
        0x08000fa6:    4a10        .J      LDR      r2,[pc,#64] ; [0x8000fe8] = 0x40021000
        0x08000fa8:    6812        .h      LDR      r2,[r2,#0]
        0x08000faa:    f0427280    B..r    ORR      r2,r2,#0x1000000
        0x08000fae:    4b0e        .K      LDR      r3,[pc,#56] ; [0x8000fe8] = 0x40021000
        0x08000fb0:    601a        .`      STR      r2,[r3,#0]
        0x08000fb2:    bf00        ..      NOP      
        0x08000fb4:    4a0c        .J      LDR      r2,[pc,#48] ; [0x8000fe8] = 0x40021000
        0x08000fb6:    6812        .h      LDR      r2,[r2,#0]
        0x08000fb8:    f0027200    ...r    AND      r2,r2,#0x2000000
        0x08000fbc:    2a00        .*      CMP      r2,#0
        0x08000fbe:    d0f9        ..      BEQ      0x8000fb4 ; system_clock_120m_hxtal + 160
        0x08000fc0:    4a09        .J      LDR      r2,[pc,#36] ; [0x8000fe8] = 0x40021000
        0x08000fc2:    6852        Rh      LDR      r2,[r2,#4]
        0x08000fc4:    f0220203    "...    BIC      r2,r2,#3
        0x08000fc8:    4b07        .K      LDR      r3,[pc,#28] ; [0x8000fe8] = 0x40021000
        0x08000fca:    605a        Z`      STR      r2,[r3,#4]
        0x08000fcc:    461a        .F      MOV      r2,r3
        0x08000fce:    6852        Rh      LDR      r2,[r2,#4]
        0x08000fd0:    f0420202    B...    ORR      r2,r2,#2
        0x08000fd4:    605a        Z`      STR      r2,[r3,#4]
        0x08000fd6:    bf00        ..      NOP      
        0x08000fd8:    4a03        .J      LDR      r2,[pc,#12] ; [0x8000fe8] = 0x40021000
        0x08000fda:    6852        Rh      LDR      r2,[r2,#4]
        0x08000fdc:    f0020208    ....    AND      r2,r2,#8
        0x08000fe0:    2a00        .*      CMP      r2,#0
        0x08000fe2:    d0f9        ..      BEQ      0x8000fd8 ; system_clock_120m_hxtal + 196
        0x08000fe4:    4770        pG      BX       lr
    $d
        0x08000fe6:    0000        ..      DCW    0
        0x08000fe8:    40021000    ...@    DCD    1073876992
        0x08000fec:    dfc0ffff    ....    DCD    3753967615
        0x08000ff0:    fffef000    ....    DCD    4294897664
        0x08000ff4:    00010831    1...    DCD    67633
    $t
    i.system_clock_config
    system_clock_config
        0x08000ff8:    b510        ..      PUSH     {r4,lr}
        0x08000ffa:    f7ffff8b    ....    BL       system_clock_120m_hxtal ; 0x8000f14
        0x08000ffe:    bd10        ..      POP      {r4,pc}
    i.systick_clksource_set
    systick_clksource_set
        0x08001000:    2804        .(      CMP      r0,#4
        0x08001002:    d108        ..      BNE      0x8001016 ; systick_clksource_set + 22
        0x08001004:    f04f21e0    O..!    MOV      r1,#0xe000e000
        0x08001008:    6909        .i      LDR      r1,[r1,#0x10]
        0x0800100a:    f0410104    A...    ORR      r1,r1,#4
        0x0800100e:    f04f22e0    O.."    MOV      r2,#0xe000e000
        0x08001012:    6111        .a      STR      r1,[r2,#0x10]
        0x08001014:    e007        ..      B        0x8001026 ; systick_clksource_set + 38
        0x08001016:    f04f21e0    O..!    MOV      r1,#0xe000e000
        0x0800101a:    6909        .i      LDR      r1,[r1,#0x10]
        0x0800101c:    f0210104    !...    BIC      r1,r1,#4
        0x08001020:    f04f22e0    O.."    MOV      r2,#0xe000e000
        0x08001024:    6111        .a      STR      r1,[r2,#0x10]
        0x08001026:    4770        pG      BX       lr
    i.systick_config
    systick_config
        0x08001028:    b510        ..      PUSH     {r4,lr}
        0x0800102a:    f06f0004    o...    MVN      r0,#4
        0x0800102e:    f7ffffe7    ....    BL       systick_clksource_set ; 0x8001000
        0x08001032:    480a        .H      LDR      r0,[pc,#40] ; [0x800105c] = 0x20000024
        0x08001034:    6800        .h      LDR      r0,[r0,#0]
        0x08001036:    490a        .I      LDR      r1,[pc,#40] ; [0x8001060] = 0x7a1200
        0x08001038:    fbb0f0f1    ....    UDIV     r0,r0,r1
        0x0800103c:    4909        .I      LDR      r1,[pc,#36] ; [0x8001064] = 0x2000000e
        0x0800103e:    7008        .p      STRB     r0,[r1,#0]
        0x08001040:    4608        .F      MOV      r0,r1
        0x08001042:    7800        .x      LDRB     r0,[r0,#0]
        0x08001044:    eb000140    ..@.    ADD      r1,r0,r0,LSL #1
        0x08001048:    ebc110c0    ....    RSB      r0,r1,r0,LSL #7
        0x0800104c:    f64f71ff    O..q    MOV      r1,#0xffff
        0x08001050:    ea0100c0    ....    AND      r0,r1,r0,LSL #3
        0x08001054:    4904        .I      LDR      r1,[pc,#16] ; [0x8001068] = 0x2000000c
        0x08001056:    8008        ..      STRH     r0,[r1,#0]
        0x08001058:    bd10        ..      POP      {r4,pc}
    $d
        0x0800105a:    0000        ..      DCW    0
        0x0800105c:    20000024    $..     DCD    536870948
        0x08001060:    007a1200    ..z.    DCD    8000000
        0x08001064:    2000000e    ...     DCD    536870926
        0x08001068:    2000000c    ...     DCD    536870924
    $t
    i.usart_baudrate_set
    usart_baudrate_set
        0x0800106c:    e92d47f0    -..G    PUSH     {r4-r10,lr}
        0x08001070:    4604        .F      MOV      r4,r0
        0x08001072:    460d        .F      MOV      r5,r1
        0x08001074:    2700        .'      MOVS     r7,#0
        0x08001076:    46b8        .F      MOV      r8,r7
        0x08001078:    46b9        .F      MOV      r9,r7
        0x0800107a:    2600        .&      MOVS     r6,#0
        0x0800107c:    492a        *I      LDR      r1,[pc,#168] ; [0x8001128] = 0x40007800
        0x0800107e:    1a60        `.      SUBS     r0,r4,r1
        0x08001080:    428c        .B      CMP      r4,r1
        0x08001082:    d035        5.      BEQ      0x80010f0 ; usart_baudrate_set + 132
        0x08001084:    dc0c        ..      BGT      0x80010a0 ; usart_baudrate_set + 52
        0x08001086:    4829        )H      LDR      r0,[pc,#164] ; [0x800112c] = 0xbfffbc00
        0x08001088:    4420         D      ADD      r0,r0,r4
        0x0800108a:    b1e8        ..      CBZ      r0,0x80010c8 ; usart_baudrate_set + 92
        0x0800108c:    f5b06f80    ...o    CMP      r0,#0x400
        0x08001090:    d01f        ..      BEQ      0x80010d2 ; usart_baudrate_set + 102
        0x08001092:    f5b06f00    ...o    CMP      r0,#0x800
        0x08001096:    d021        !.      BEQ      0x80010dc ; usart_baudrate_set + 112
        0x08001098:    f5b06f40    ..@o    CMP      r0,#0xc00
        0x0800109c:    d132        2.      BNE      0x8001104 ; usart_baudrate_set + 152
        0x0800109e:    e022        ".      B        0x80010e6 ; usart_baudrate_set + 122
        0x080010a0:    f5b06f80    ...o    CMP      r0,#0x400
        0x080010a4:    d029        ).      BEQ      0x80010fa ; usart_baudrate_set + 142
        0x080010a6:    f5b04f40    ..@O    CMP      r0,#0xc000
        0x080010aa:    d003        ..      BEQ      0x80010b4 ; usart_baudrate_set + 72
        0x080010ac:    f5b04f78    ..xO    CMP      r0,#0xf800
        0x080010b0:    d128        (.      BNE      0x8001104 ; usart_baudrate_set + 152
        0x080010b2:    e004        ..      B        0x80010be ; usart_baudrate_set + 82
        0x080010b4:    2003        .       MOVS     r0,#3
        0x080010b6:    f7fffe47    ..G.    BL       rcu_clock_freq_get ; 0x8000d48
        0x080010ba:    4607        .F      MOV      r7,r0
        0x080010bc:    e023        #.      B        0x8001106 ; usart_baudrate_set + 154
        0x080010be:    2003        .       MOVS     r0,#3
        0x080010c0:    f7fffe42    ..B.    BL       rcu_clock_freq_get ; 0x8000d48
        0x080010c4:    4607        .F      MOV      r7,r0
        0x080010c6:    e01e        ..      B        0x8001106 ; usart_baudrate_set + 154
        0x080010c8:    2002        .       MOVS     r0,#2
        0x080010ca:    f7fffe3d    ..=.    BL       rcu_clock_freq_get ; 0x8000d48
        0x080010ce:    4607        .F      MOV      r7,r0
        0x080010d0:    e019        ..      B        0x8001106 ; usart_baudrate_set + 154
        0x080010d2:    2002        .       MOVS     r0,#2
        0x080010d4:    f7fffe38    ..8.    BL       rcu_clock_freq_get ; 0x8000d48
        0x080010d8:    4607        .F      MOV      r7,r0
        0x080010da:    e014        ..      B        0x8001106 ; usart_baudrate_set + 154
        0x080010dc:    2002        .       MOVS     r0,#2
        0x080010de:    f7fffe33    ..3.    BL       rcu_clock_freq_get ; 0x8000d48
        0x080010e2:    4607        .F      MOV      r7,r0
        0x080010e4:    e00f        ..      B        0x8001106 ; usart_baudrate_set + 154
        0x080010e6:    2002        .       MOVS     r0,#2
        0x080010e8:    f7fffe2e    ....    BL       rcu_clock_freq_get ; 0x8000d48
        0x080010ec:    4607        .F      MOV      r7,r0
        0x080010ee:    e00a        ..      B        0x8001106 ; usart_baudrate_set + 154
        0x080010f0:    2002        .       MOVS     r0,#2
        0x080010f2:    f7fffe29    ..).    BL       rcu_clock_freq_get ; 0x8000d48
        0x080010f6:    4607        .F      MOV      r7,r0
        0x080010f8:    e005        ..      B        0x8001106 ; usart_baudrate_set + 154
        0x080010fa:    2002        .       MOVS     r0,#2
        0x080010fc:    f7fffe24    ..$.    BL       rcu_clock_freq_get ; 0x8000d48
        0x08001100:    4607        .F      MOV      r7,r0
        0x08001102:    e000        ..      B        0x8001106 ; usart_baudrate_set + 154
        0x08001104:    bf00        ..      NOP      
        0x08001106:    bf00        ..      NOP      
        0x08001108:    eb070055    ..U.    ADD      r0,r7,r5,LSR #1
        0x0800110c:    fbb0f6f5    ....    UDIV     r6,r0,r5
        0x08001110:    f64f70f0    O..p    MOV      r0,#0xfff0
        0x08001114:    ea060800    ....    AND      r8,r6,r0
        0x08001118:    f006090f    ....    AND      r9,r6,#0xf
        0x0800111c:    ea480009    H...    ORR      r0,r8,r9
        0x08001120:    60a0        .`      STR      r0,[r4,#8]
        0x08001122:    e8bd87f0    ....    POP      {r4-r10,pc}
    $d
        0x08001126:    0000        ..      DCW    0
        0x08001128:    40007800    .x.@    DCD    1073772544
        0x0800112c:    bfffbc00    ....    DCD    3221208064
    $t
    i.usart_config
    usart_config
        0x08001130:    b510        ..      PUSH     {r4,lr}
        0x08001132:    f2406002    @..`    MOV      r0,#0x602
        0x08001136:    f7fffebd    ....    BL       rcu_periph_clock_enable ; 0x8000eb4
        0x0800113a:    f240600e    @..`    MOV      r0,#0x60e
        0x0800113e:    f7fffeb9    ....    BL       rcu_periph_clock_enable ; 0x8000eb4
        0x08001142:    f44f7300    O..s    MOV      r3,#0x200
        0x08001146:    2203        ."      MOVS     r2,#3
        0x08001148:    2118        .!      MOVS     r1,#0x18
        0x0800114a:    481e        .H      LDR      r0,[pc,#120] ; [0x80011c4] = 0x40010800
        0x0800114c:    f7fffc60    ..`.    BL       gpio_init ; 0x8000a10
        0x08001150:    f44f6380    O..c    MOV      r3,#0x400
        0x08001154:    2203        ."      MOVS     r2,#3
        0x08001156:    2104        .!      MOVS     r1,#4
        0x08001158:    481a        .H      LDR      r0,[pc,#104] ; [0x80011c4] = 0x40010800
        0x0800115a:    f7fffc59    ..Y.    BL       gpio_init ; 0x8000a10
        0x0800115e:    481a        .H      LDR      r0,[pc,#104] ; [0x80011c8] = 0x40013800
        0x08001160:    f000f83e    ..>.    BL       usart_deinit ; 0x80011e0
        0x08001164:    f44f31e1    O..1    MOV      r1,#0x1c200
        0x08001168:    4817        .H      LDR      r0,[pc,#92] ; [0x80011c8] = 0x40013800
        0x0800116a:    f7ffff7f    ....    BL       usart_baudrate_set ; 0x800106c
        0x0800116e:    2100        .!      MOVS     r1,#0
        0x08001170:    4815        .H      LDR      r0,[pc,#84] ; [0x80011c8] = 0x40013800
        0x08001172:    f000f925    ..%.    BL       usart_word_length_set ; 0x80013c0
        0x08001176:    2100        .!      MOVS     r1,#0
        0x08001178:    4813        .H      LDR      r0,[pc,#76] ; [0x80011c8] = 0x40013800
        0x0800117a:    f000f90f    ....    BL       usart_stop_bit_set ; 0x800139c
        0x0800117e:    2100        .!      MOVS     r1,#0
        0x08001180:    4811        .H      LDR      r0,[pc,#68] ; [0x80011c8] = 0x40013800
        0x08001182:    f000f8f9    ....    BL       usart_parity_config ; 0x8001378
        0x08001186:    2100        .!      MOVS     r1,#0
        0x08001188:    480f        .H      LDR      r0,[pc,#60] ; [0x80011c8] = 0x40013800
        0x0800118a:    f000f8b5    ....    BL       usart_hardware_flow_rts_config ; 0x80012f8
        0x0800118e:    2100        .!      MOVS     r1,#0
        0x08001190:    480d        .H      LDR      r0,[pc,#52] ; [0x80011c8] = 0x40013800
        0x08001192:    f000f8a7    ....    BL       usart_hardware_flow_cts_config ; 0x80012e4
        0x08001196:    2104        .!      MOVS     r1,#4
        0x08001198:    480b        .H      LDR      r0,[pc,#44] ; [0x80011c8] = 0x40013800
        0x0800119a:    f000f8f5    ....    BL       usart_receive_config ; 0x8001388
        0x0800119e:    2108        .!      MOVS     r1,#8
        0x080011a0:    4809        .H      LDR      r0,[pc,#36] ; [0x80011c8] = 0x40013800
        0x080011a2:    f000f903    ....    BL       usart_transmit_config ; 0x80013ac
        0x080011a6:    4808        .H      LDR      r0,[pc,#32] ; [0x80011c8] = 0x40013800
        0x080011a8:    f000f888    ....    BL       usart_enable ; 0x80012bc
        0x080011ac:    f2403105    @..1    MOV      r1,#0x305
        0x080011b0:    4805        .H      LDR      r0,[pc,#20] ; [0x80011c8] = 0x40013800
        0x080011b2:    f000f8b8    ....    BL       usart_interrupt_enable ; 0x8001326
        0x080011b6:    2200        ."      MOVS     r2,#0
        0x080011b8:    4611        .F      MOV      r1,r2
        0x080011ba:    2025        %       MOVS     r0,#0x25
        0x080011bc:    f7fffd64    ..d.    BL       nvic_irq_enable ; 0x8000c88
        0x080011c0:    bd10        ..      POP      {r4,pc}
    $d
        0x080011c2:    0000        ..      DCW    0
        0x080011c4:    40010800    ...@    DCD    1073809408
        0x080011c8:    40013800    .8.@    DCD    1073821696
    $t
    i.usart_data_receive
    usart_data_receive
        0x080011cc:    4601        .F      MOV      r1,r0
        0x080011ce:    6848        Hh      LDR      r0,[r1,#4]
        0x080011d0:    f3c00008    ....    UBFX     r0,r0,#0,#9
        0x080011d4:    4770        pG      BX       lr
    i.usart_data_transmit
    usart_data_transmit
        0x080011d6:    f3c10208    ....    UBFX     r2,r1,#0,#9
        0x080011da:    6042        B`      STR      r2,[r0,#4]
        0x080011dc:    4770        pG      BX       lr
        0x080011de:    0000        ..      MOVS     r0,r0
    i.usart_deinit
    usart_deinit
        0x080011e0:    b510        ..      PUSH     {r4,lr}
        0x080011e2:    4604        .F      MOV      r4,r0
        0x080011e4:    4933        3I      LDR      r1,[pc,#204] ; [0x80012b4] = 0x40007800
        0x080011e6:    1a60        `.      SUBS     r0,r4,r1
        0x080011e8:    428c        .B      CMP      r4,r1
        0x080011ea:    d04d        M.      BEQ      0x8001288 ; usart_deinit + 168
        0x080011ec:    dc0c        ..      BGT      0x8001208 ; usart_deinit + 40
        0x080011ee:    4832        2H      LDR      r0,[pc,#200] ; [0x80012b8] = 0xbfffbc00
        0x080011f0:    4420         D      ADD      r0,r0,r4
        0x080011f2:    b1e0        ..      CBZ      r0,0x800122e ; usart_deinit + 78
        0x080011f4:    f5b06f80    ...o    CMP      r0,#0x400
        0x080011f8:    d022        ".      BEQ      0x8001240 ; usart_deinit + 96
        0x080011fa:    f5b06f00    ...o    CMP      r0,#0x800
        0x080011fe:    d031        1.      BEQ      0x8001264 ; usart_deinit + 132
        0x08001200:    f5b06f40    ..@o    CMP      r0,#0xc00
        0x08001204:    d152        R.      BNE      0x80012ac ; usart_deinit + 204
        0x08001206:    e036        6.      B        0x8001276 ; usart_deinit + 150
        0x08001208:    f5b06f80    ...o    CMP      r0,#0x400
        0x0800120c:    d045        E.      BEQ      0x800129a ; usart_deinit + 186
        0x0800120e:    f5b04f40    ..@O    CMP      r0,#0xc000
        0x08001212:    d003        ..      BEQ      0x800121c ; usart_deinit + 60
        0x08001214:    f5b04f78    ..xO    CMP      r0,#0xf800
        0x08001218:    d148        H.      BNE      0x80012ac ; usart_deinit + 204
        0x0800121a:    e01a        ..      B        0x8001252 ; usart_deinit + 114
        0x0800121c:    f240300e    @..0    MOV      r0,#0x30e
        0x08001220:    f7fffe68    ..h.    BL       rcu_periph_reset_enable ; 0x8000ef4
        0x08001224:    f240300e    @..0    MOV      r0,#0x30e
        0x08001228:    f7fffe54    ..T.    BL       rcu_periph_reset_disable ; 0x8000ed4
        0x0800122c:    e03f        ?.      B        0x80012ae ; usart_deinit + 206
        0x0800122e:    f2404011    @..@    MOV      r0,#0x411
        0x08001232:    f7fffe5f    .._.    BL       rcu_periph_reset_enable ; 0x8000ef4
        0x08001236:    f2404011    @..@    MOV      r0,#0x411
        0x0800123a:    f7fffe4b    ..K.    BL       rcu_periph_reset_disable ; 0x8000ed4
        0x0800123e:    e036        6.      B        0x80012ae ; usart_deinit + 206
        0x08001240:    f2404012    @..@    MOV      r0,#0x412
        0x08001244:    f7fffe56    ..V.    BL       rcu_periph_reset_enable ; 0x8000ef4
        0x08001248:    f2404012    @..@    MOV      r0,#0x412
        0x0800124c:    f7fffe42    ..B.    BL       rcu_periph_reset_disable ; 0x8000ed4
        0x08001250:    e02d        -.      B        0x80012ae ; usart_deinit + 206
        0x08001252:    f6415018    A..P    MOV      r0,#0x1d18
        0x08001256:    f7fffe4d    ..M.    BL       rcu_periph_reset_enable ; 0x8000ef4
        0x0800125a:    f6415018    A..P    MOV      r0,#0x1d18
        0x0800125e:    f7fffe39    ..9.    BL       rcu_periph_reset_disable ; 0x8000ed4
        0x08001262:    e024        $.      B        0x80012ae ; usart_deinit + 206
        0x08001264:    f2404013    @..@    MOV      r0,#0x413
        0x08001268:    f7fffe44    ..D.    BL       rcu_periph_reset_enable ; 0x8000ef4
        0x0800126c:    f2404013    @..@    MOV      r0,#0x413
        0x08001270:    f7fffe30    ..0.    BL       rcu_periph_reset_disable ; 0x8000ed4
        0x08001274:    e01b        ..      B        0x80012ae ; usart_deinit + 206
        0x08001276:    f2404014    @..@    MOV      r0,#0x414
        0x0800127a:    f7fffe3b    ..;.    BL       rcu_periph_reset_enable ; 0x8000ef4
        0x0800127e:    f2404014    @..@    MOV      r0,#0x414
        0x08001282:    f7fffe27    ..'.    BL       rcu_periph_reset_disable ; 0x8000ed4
        0x08001286:    e012        ..      B        0x80012ae ; usart_deinit + 206
        0x08001288:    f641601e    A..`    MOV      r0,#0x1e1e
        0x0800128c:    f7fffe32    ..2.    BL       rcu_periph_reset_enable ; 0x8000ef4
        0x08001290:    f641601e    A..`    MOV      r0,#0x1e1e
        0x08001294:    f7fffe1e    ....    BL       rcu_periph_reset_disable ; 0x8000ed4
        0x08001298:    e009        ..      B        0x80012ae ; usart_deinit + 206
        0x0800129a:    f641601f    A..`    MOV      r0,#0x1e1f
        0x0800129e:    f7fffe29    ..).    BL       rcu_periph_reset_enable ; 0x8000ef4
        0x080012a2:    f641601f    A..`    MOV      r0,#0x1e1f
        0x080012a6:    f7fffe15    ....    BL       rcu_periph_reset_disable ; 0x8000ed4
        0x080012aa:    e000        ..      B        0x80012ae ; usart_deinit + 206
        0x080012ac:    bf00        ..      NOP      
        0x080012ae:    bf00        ..      NOP      
        0x080012b0:    bd10        ..      POP      {r4,pc}
    $d
        0x080012b2:    0000        ..      DCW    0
        0x080012b4:    40007800    .x.@    DCD    1073772544
        0x080012b8:    bfffbc00    ....    DCD    3221208064
    $t
    i.usart_enable
    usart_enable
        0x080012bc:    68c1        .h      LDR      r1,[r0,#0xc]
        0x080012be:    f4415100    A..Q    ORR      r1,r1,#0x2000
        0x080012c2:    60c1        .`      STR      r1,[r0,#0xc]
        0x080012c4:    4770        pG      BX       lr
    i.usart_flag_get
    usart_flag_get
        0x080012c6:    b510        ..      PUSH     {r4,lr}
        0x080012c8:    4602        .F      MOV      r2,r0
        0x080012ca:    eb021091    ....    ADD      r0,r2,r1,LSR #6
        0x080012ce:    6800        .h      LDR      r0,[r0,#0]
        0x080012d0:    f001041f    ....    AND      r4,r1,#0x1f
        0x080012d4:    2301        .#      MOVS     r3,#1
        0x080012d6:    40a3        .@      LSLS     r3,r3,r4
        0x080012d8:    4018        .@      ANDS     r0,r0,r3
        0x080012da:    b108        ..      CBZ      r0,0x80012e0 ; usart_flag_get + 26
        0x080012dc:    2001        .       MOVS     r0,#1
        0x080012de:    bd10        ..      POP      {r4,pc}
        0x080012e0:    2000        .       MOVS     r0,#0
        0x080012e2:    e7fc        ..      B        0x80012de ; usart_flag_get + 24
    i.usart_hardware_flow_cts_config
    usart_hardware_flow_cts_config
        0x080012e4:    6942        Bi      LDR      r2,[r0,#0x14]
        0x080012e6:    f4227200    "..r    BIC      r2,r2,#0x200
        0x080012ea:    6142        Ba      STR      r2,[r0,#0x14]
        0x080012ec:    6942        Bi      LDR      r2,[r0,#0x14]
        0x080012ee:    f4017300    ...s    AND      r3,r1,#0x200
        0x080012f2:    431a        .C      ORRS     r2,r2,r3
        0x080012f4:    6142        Ba      STR      r2,[r0,#0x14]
        0x080012f6:    4770        pG      BX       lr
    i.usart_hardware_flow_rts_config
    usart_hardware_flow_rts_config
        0x080012f8:    6942        Bi      LDR      r2,[r0,#0x14]
        0x080012fa:    f4227280    "..r    BIC      r2,r2,#0x100
        0x080012fe:    6142        Ba      STR      r2,[r0,#0x14]
        0x08001300:    6942        Bi      LDR      r2,[r0,#0x14]
        0x08001302:    f4017380    ...s    AND      r3,r1,#0x100
        0x08001306:    431a        .C      ORRS     r2,r2,r3
        0x08001308:    6142        Ba      STR      r2,[r0,#0x14]
        0x0800130a:    4770        pG      BX       lr
    i.usart_interrupt_disable
    usart_interrupt_disable
        0x0800130c:    b510        ..      PUSH     {r4,lr}
        0x0800130e:    eb001291    ....    ADD      r2,r0,r1,LSR #6
        0x08001312:    6812        .h      LDR      r2,[r2,#0]
        0x08001314:    f001041f    ....    AND      r4,r1,#0x1f
        0x08001318:    2301        .#      MOVS     r3,#1
        0x0800131a:    40a3        .@      LSLS     r3,r3,r4
        0x0800131c:    439a        .C      BICS     r2,r2,r3
        0x0800131e:    eb001391    ....    ADD      r3,r0,r1,LSR #6
        0x08001322:    601a        .`      STR      r2,[r3,#0]
        0x08001324:    bd10        ..      POP      {r4,pc}
    i.usart_interrupt_enable
    usart_interrupt_enable
        0x08001326:    b510        ..      PUSH     {r4,lr}
        0x08001328:    eb001291    ....    ADD      r2,r0,r1,LSR #6
        0x0800132c:    6812        .h      LDR      r2,[r2,#0]
        0x0800132e:    f001041f    ....    AND      r4,r1,#0x1f
        0x08001332:    2301        .#      MOVS     r3,#1
        0x08001334:    40a3        .@      LSLS     r3,r3,r4
        0x08001336:    431a        .C      ORRS     r2,r2,r3
        0x08001338:    eb001391    ....    ADD      r3,r0,r1,LSR #6
        0x0800133c:    601a        .`      STR      r2,[r3,#0]
        0x0800133e:    bd10        ..      POP      {r4,pc}
    i.usart_interrupt_flag_get
    usart_interrupt_flag_get
        0x08001340:    b570        p.      PUSH     {r4-r6,lr}
        0x08001342:    4602        .F      MOV      r2,r0
        0x08001344:    2300        .#      MOVS     r3,#0
        0x08001346:    2400        .$      MOVS     r4,#0
        0x08001348:    f3c11089    ....    UBFX     r0,r1,#6,#10
        0x0800134c:    5810        .X      LDR      r0,[r2,r0]
        0x0800134e:    f001061f    ....    AND      r6,r1,#0x1f
        0x08001352:    2501        .%      MOVS     r5,#1
        0x08001354:    40b5        .@      LSLS     r5,r5,r6
        0x08001356:    ea000305    ....    AND      r3,r0,r5
        0x0800135a:    eb025091    ...P    ADD      r0,r2,r1,LSR #22
        0x0800135e:    6800        .h      LDR      r0,[r0,#0]
        0x08001360:    f3c14604    ...F    UBFX     r6,r1,#16,#5
        0x08001364:    2501        .%      MOVS     r5,#1
        0x08001366:    40b5        .@      LSLS     r5,r5,r6
        0x08001368:    ea000405    ....    AND      r4,r0,r5
        0x0800136c:    b114        ..      CBZ      r4,0x8001374 ; usart_interrupt_flag_get + 52
        0x0800136e:    b10b        ..      CBZ      r3,0x8001374 ; usart_interrupt_flag_get + 52
        0x08001370:    2001        .       MOVS     r0,#1
        0x08001372:    bd70        p.      POP      {r4-r6,pc}
        0x08001374:    2000        .       MOVS     r0,#0
        0x08001376:    e7fc        ..      B        0x8001372 ; usart_interrupt_flag_get + 50
    i.usart_parity_config
    usart_parity_config
        0x08001378:    68c2        .h      LDR      r2,[r0,#0xc]
        0x0800137a:    f42262c0    "..b    BIC      r2,r2,#0x600
        0x0800137e:    60c2        .`      STR      r2,[r0,#0xc]
        0x08001380:    68c2        .h      LDR      r2,[r0,#0xc]
        0x08001382:    430a        .C      ORRS     r2,r2,r1
        0x08001384:    60c2        .`      STR      r2,[r0,#0xc]
        0x08001386:    4770        pG      BX       lr
    i.usart_receive_config
    usart_receive_config
        0x08001388:    68c2        .h      LDR      r2,[r0,#0xc]
        0x0800138a:    f0220204    "...    BIC      r2,r2,#4
        0x0800138e:    60c2        .`      STR      r2,[r0,#0xc]
        0x08001390:    68c2        .h      LDR      r2,[r0,#0xc]
        0x08001392:    f0010304    ....    AND      r3,r1,#4
        0x08001396:    431a        .C      ORRS     r2,r2,r3
        0x08001398:    60c2        .`      STR      r2,[r0,#0xc]
        0x0800139a:    4770        pG      BX       lr
    i.usart_stop_bit_set
    usart_stop_bit_set
        0x0800139c:    6902        .i      LDR      r2,[r0,#0x10]
        0x0800139e:    f4225240    ".@R    BIC      r2,r2,#0x3000
        0x080013a2:    6102        .a      STR      r2,[r0,#0x10]
        0x080013a4:    6902        .i      LDR      r2,[r0,#0x10]
        0x080013a6:    430a        .C      ORRS     r2,r2,r1
        0x080013a8:    6102        .a      STR      r2,[r0,#0x10]
        0x080013aa:    4770        pG      BX       lr
    i.usart_transmit_config
    usart_transmit_config
        0x080013ac:    68c2        .h      LDR      r2,[r0,#0xc]
        0x080013ae:    f0220208    "...    BIC      r2,r2,#8
        0x080013b2:    60c2        .`      STR      r2,[r0,#0xc]
        0x080013b4:    68c2        .h      LDR      r2,[r0,#0xc]
        0x080013b6:    f0010308    ....    AND      r3,r1,#8
        0x080013ba:    431a        .C      ORRS     r2,r2,r3
        0x080013bc:    60c2        .`      STR      r2,[r0,#0xc]
        0x080013be:    4770        pG      BX       lr
    i.usart_word_length_set
    usart_word_length_set
        0x080013c0:    68c2        .h      LDR      r2,[r0,#0xc]
        0x080013c2:    f4225280    "..R    BIC      r2,r2,#0x1000
        0x080013c6:    60c2        .`      STR      r2,[r0,#0xc]
        0x080013c8:    68c2        .h      LDR      r2,[r0,#0xc]
        0x080013ca:    430a        .C      ORRS     r2,r2,r1
        0x080013cc:    60c2        .`      STR      r2,[r0,#0xc]
        0x080013ce:    4770        pG      BX       lr
    $d.realdata
    Region$$Table$$Base
        0x080013d0:    080013f0    ....    DCD    134222832
        0x080013d4:    20000000    ...     DCD    536870912
        0x080013d8:    0000002c    ,...    DCD    44
        0x080013dc:    08000688    ....    DCD    134219400
        0x080013e0:    0800141c    ....    DCD    134222876
        0x080013e4:    2000002c    ,..     DCD    536870956
        0x080013e8:    000087d4    ....    DCD    34772
        0x080013ec:    08000698    ....    DCD    134219416
    Region$$Table$$Limit

** Section #2 'RW_IRAM1' (SHT_PROGBITS) [SHF_ALLOC + SHF_WRITE]
    Size   : 44 bytes (alignment 4)
    Address: 0x20000000


** Section #3 'RW_IRAM1' (SHT_NOBITS) [SHF_ALLOC + SHF_WRITE]
    Size   : 34772 bytes (alignment 8)
    Address: 0x2000002c


** Section #4 '.debug_abbrev' (SHT_PROGBITS)
    Size   : 1476 bytes


** Section #5 '.debug_frame' (SHT_PROGBITS)
    Size   : 2212 bytes


** Section #6 '.debug_info' (SHT_PROGBITS)
    Size   : 29556 bytes


** Section #7 '.debug_line' (SHT_PROGBITS)
    Size   : 11564 bytes


** Section #8 '.debug_loc' (SHT_PROGBITS)
    Size   : 3952 bytes


** Section #9 '.debug_macinfo' (SHT_PROGBITS)
    Size   : 37184 bytes


** Section #10 '.debug_pubnames' (SHT_PROGBITS)
    Size   : 2651 bytes


** Section #11 '.symtab' (SHT_SYMTAB)
    Size   : 7952 bytes (alignment 4)
    String table #12 '.strtab'
    Last local symbol no. 313


** Section #12 '.strtab' (SHT_STRTAB)
    Size   : 11496 bytes


** Section #13 '.note' (SHT_NOTE)
    Size   : 28 bytes (alignment 4)


** Section #14 '.comment' (SHT_PROGBITS)
    Size   : 51764 bytes


** Section #15 '.shstrtab' (SHT_STRTAB)
    Size   : 156 bytes


address     size       variable name                            type
0x20000024  0x4        SystemCoreClock                          uint32_t

address     size       variable name                            type
0x20006000  0x800      iapbuf                                   array[1024] of uint16_t

address     size       variable name                            type
0x20000020  0x4        jump2app                                 iapfun

address     size       variable name                            type
0x200000f4  0x800      GDFLASH_BUF                              array[1024] of uint16_t

address     size       variable name                            type
0x20001000  0x5000     RS485_RX_BUF                             array[20480] of uint8_t

address     size       variable name                            type
0x2000001c  0x4        RS485_RX_CNT                             uint32_t

address     size       variable name                            type
0x20000018  0x1        CodeUpdateFlag                           uint8_t

address     size       variable name                            type
0x20000019  0x1        Finish_Flag                              uint8_t

address     size       variable name                            type
0x2000002c  0xc8       USART_RX_BUF                             array[200] of uint8_t

address     size       variable name                            type
0x20000014  0x4        USART_RX_CNT                             uint32_t

address     size       variable name                            type
0x20000010  0x2        USART_RX_STA                             uint16_t

address     size       variable name                            type
0x20000008  0x4        delay                                    volatile uint32_t

address     size       variable name                            type
0x2000000c  0x2        fac_ms                                   uint16_t

address     size       variable name                            type
0x2000000e  0x1        fac_us                                   uint8_t

address     size       variable name                            type
0x20000000  0x4        AppCodeLength                            uint32_t

address     size       variable name                            type
0x20000004  0x1        AppRunFlag                               uint8_t

